
hello-c.elf:	file format ELF64-x86-64

architecture: x86_64
start address: 0x0000000000400450

Program Header:
    PHDR off    0x0000000000000040 vaddr 0x0000000000400040 paddr 0x0000000000400040 align 2**3
         filesz 0x00000000000001f8 memsz 0x00000000000001f8 flags r-x
  INTERP off    0x0000000000000238 vaddr 0x0000000000400238 paddr 0x0000000000400238 align 2**0
         filesz 0x000000000000001c memsz 0x000000000000001c flags r--
    LOAD off    0x0000000000000000 vaddr 0x0000000000400000 paddr 0x0000000000400000 align 2**21
         filesz 0x000000000000077c memsz 0x000000000000077c flags r-x
    LOAD off    0x0000000000000df8 vaddr 0x0000000000600df8 paddr 0x0000000000600df8 align 2**21
         filesz 0x0000000000000240 memsz 0x0000000000000248 flags rw-
 DYNAMIC off    0x0000000000000e10 vaddr 0x0000000000600e10 paddr 0x0000000000600e10 align 2**3
         filesz 0x00000000000001e0 memsz 0x00000000000001e0 flags rw-
    NOTE off    0x0000000000000254 vaddr 0x0000000000400254 paddr 0x0000000000400254 align 2**2
         filesz 0x0000000000000020 memsz 0x0000000000000020 flags r--
EH_FRAME off    0x0000000000000654 vaddr 0x0000000000400654 paddr 0x0000000000400654 align 2**2
         filesz 0x0000000000000034 memsz 0x0000000000000034 flags r--
   STACK off    0x0000000000000000 vaddr 0x0000000000000000 paddr 0x0000000000000000 align 2**4
         filesz 0x0000000000000000 memsz 0x0000000000000000 flags rw-
   RELRO off    0x0000000000000df8 vaddr 0x0000000000600df8 paddr 0x0000000000600df8 align 2**0
         filesz 0x0000000000000208 memsz 0x0000000000000208 flags r--

Dynamic Section:
  NEEDED               libc.so.6
  INIT                 0x0000000000400408
  FINI                 0x0000000000400634
  INIT_ARRAY           0x0000000000600df8
  INIT_ARRAYSZ         0x0000000000000008
  FINI_ARRAY           0x0000000000600e00
  FINI_ARRAYSZ         0x0000000000000008
  HASH                 0x0000000000400278
  GNU_HASH             0x00000000004002a0
  STRTAB               0x0000000000400338
  SYMTAB               0x00000000004002c0
  STRSZ                0x0000000000000045
  SYMENT               0x0000000000000018
  DEBUG                0x0000000000000000
  PLTGOT               0x0000000000601000
  PLTRELSZ             0x0000000000000030
  PLTREL               0x0000000000000007
  JMPREL               0x00000000004003d8
  RELA                 0x00000000004003a8
  RELASZ               0x0000000000000030
  RELAENT              0x0000000000000018
  VERNEED              0x0000000000400388
  VERNEEDNUM           0x0000000000000001
  VERSYM               0x000000000040037e
Version References:
  required from libc.so.6:
    0x09691a75 0x00 02 GLIBC_2.2.5
Sections:
Idx Name           Size     VMA              Type
  0                00000000 0000000000000000 
  1 .interp        0000001c 0000000000400238 DATA
  2 .note.ABI-tag  00000020 0000000000400254 
  3 .hash          00000028 0000000000400278 
  4 .gnu.hash      0000001c 00000000004002a0 
  5 .dynsym        00000078 00000000004002c0 
  6 .dynstr        00000045 0000000000400338 
  7 .gnu.version   0000000a 000000000040037e 
  8 .gnu.version_r 00000020 0000000000400388 
  9 .rela.dyn      00000030 00000000004003a8 
 10 .rela.plt      00000030 00000000004003d8 
 11 .init          00000017 0000000000400408 TEXT
 12 .plt           00000030 0000000000400420 TEXT
 13 .text          000001e2 0000000000400450 TEXT
 14 .fini          00000009 0000000000400634 TEXT
 15 .rodata        00000011 0000000000400640 DATA
 16 .eh_frame_hdr  00000034 0000000000400654 DATA
 17 .eh_frame      000000f4 0000000000400688 DATA
 18 .init_array    00000008 0000000000600df8 
 19 .fini_array    00000008 0000000000600e00 
 20 .jcr           00000008 0000000000600e08 DATA
 21 .dynamic       000001e0 0000000000600e10 
 22 .got           00000010 0000000000600ff0 DATA
 23 .got.plt       00000028 0000000000601000 DATA
 24 .data          00000010 0000000000601028 DATA
 25 .bss           00000008 0000000000601038 BSS
 26 .comment       000000c2 0000000000000000 
 27 .symtab        00000600 0000000000000000 
 28 .strtab        000001e1 0000000000000000 
 29 .shstrtab      000000f5 0000000000000000 

SYMBOL TABLE:
0000000000400238 l    d  .interp	00000000 .interp
0000000000400254 l    d  .note.ABI-tag	00000000 .note.ABI-tag
0000000000400278 l    d  .hash	00000000 .hash
00000000004002a0 l    d  .gnu.hash	00000000 .gnu.hash
00000000004002c0 l    d  .dynsym	00000000 .dynsym
0000000000400338 l    d  .dynstr	00000000 .dynstr
000000000040037e l    d  .gnu.version	00000000 .gnu.version
0000000000400388 l    d  .gnu.version_r	00000000 .gnu.version_r
00000000004003a8 l    d  .rela.dyn	00000000 .rela.dyn
00000000004003d8 l    d  .rela.plt	00000000 .rela.plt
0000000000400408 l    d  .init	00000000 .init
0000000000400420 l    d  .plt	00000000 .plt
0000000000400450 l    d  .text	00000000 .text
0000000000400634 l    d  .fini	00000000 .fini
0000000000400640 l    d  .rodata	00000000 .rodata
0000000000400654 l    d  .eh_frame_hdr	00000000 .eh_frame_hdr
0000000000400688 l    d  .eh_frame	00000000 .eh_frame
0000000000600df8 l    d  .init_array	00000000 .init_array
0000000000600e00 l    d  .fini_array	00000000 .fini_array
0000000000600e08 l    d  .jcr	00000000 .jcr
0000000000600e10 l    d  .dynamic	00000000 .dynamic
0000000000600ff0 l    d  .got	00000000 .got
0000000000601000 l    d  .got.plt	00000000 .got.plt
0000000000601028 l    d  .data	00000000 .data
0000000000601038 l    d  .bss	00000000 .bss
0000000000000000 l    d  .comment	00000000 .comment
0000000000000000 l    df *ABS*	00000000 crtstuff.c
0000000000600e08 l     O .jcr	00000000 __JCR_LIST__
0000000000400480 l     F .text	00000000 deregister_tm_clones
00000000004004c0 l     F .text	00000000 register_tm_clones
0000000000400500 l     F .text	00000000 __do_global_dtors_aux
0000000000601038 l     O .bss	00000001 completed.6972
0000000000600e00 l     O .fini_array	00000000 __do_global_dtors_aux_fini_array_entry
0000000000400520 l     F .text	00000000 frame_dummy
0000000000600df8 l     O .init_array	00000000 __frame_dummy_init_array_entry
0000000000000000 l    df *ABS*	00000000 hello-c.c
0000000000000000 l    df *ABS*	00000000 crtstuff.c
0000000000400778 l     O .eh_frame	00000000 __FRAME_END__
0000000000600e08 l     O .jcr	00000000 __JCR_END__
0000000000000000 l    df *ABS*	00000000 
0000000000600e00         .init_array	00000000 __init_array_end
0000000000600e10 l     O .dynamic	00000000 _DYNAMIC
0000000000600df8         .init_array	00000000 __init_array_start
0000000000400654         .eh_frame_hdr	00000000 __GNU_EH_FRAME_HDR
0000000000601000 l     O .got.plt	00000000 _GLOBAL_OFFSET_TABLE_
0000000000400630 g     F .text	00000002 __libc_csu_fini
0000000000601028  w      .data	00000000 data_start
0000000000000000 g     F *UND*	00000000 write@@GLIBC_2.2.5
0000000000601038         .data	00000000 _edata
0000000000400634 g     F .fini	00000000 _fini
0000000000000000 g     F *UND*	00000000 strlen@@GLIBC_2.2.5
0000000000000000 g     F *UND*	00000000 __libc_start_main@@GLIBC_2.2.5
0000000000601028         .data	00000000 __data_start
0000000000000000  w      *UND*	00000000 __gmon_start__
0000000000601030 g     O .data	00000000 .hidden __dso_handle
0000000000400640 g     O .rodata	00000004 _IO_stdin_used
00000000004005c0 g     F .text	00000065 __libc_csu_init
0000000000601040         .bss	00000000 _end
0000000000400450 g     F .text	0000002b _start
0000000000601038         .bss	00000000 __bss_start
0000000000400550 g     F .text	00000069 main
0000000000601038 g     O .data	00000000 .hidden __TMC_END__
0000000000400408 g     F .init	00000000 _init
Contents of section .interp:
 400238 2f6c6962 36342f6c 642d6c69 6e75782d  /lib64/ld-linux-
 400248 7838362d 36342e73 6f2e3200           x86-64.so.2.
Contents of section .note.ABI-tag:
 400254 04000000 10000000 01000000 474e5500  ............GNU.
 400264 00000000 02000000 06000000 20000000  ............ ...
Contents of section .hash:
 400278 03000000 05000000 04000000 03000000  ................
 400288 00000000 00000000 00000000 00000000  ................
 400298 02000000 01000000                    ........
Contents of section .gnu.hash:
 4002a0 01000000 01000000 01000000 00000000  ................
 4002b0 00000000 00000000 00000000           ............
Contents of section .dynsym:
 4002c0 00000000 00000000 00000000 00000000  ................
 4002d0 00000000 00000000 24000000 12000000  ........$.......
 4002e0 00000000 00000000 00000000 00000000  ................
 4002f0 0b000000 12000000 00000000 00000000  ................
 400300 00000000 00000000 12000000 12000000  ................
 400310 00000000 00000000 00000000 00000000  ................
 400320 2a000000 20000000 00000000 00000000  *... ...........
 400330 00000000 00000000                    ........
Contents of section .dynstr:
 400338 006c6962 632e736f 2e360073 74726c65  .libc.so.6.strle
 400348 6e005f5f 6c696263 5f737461 72745f6d  n.__libc_start_m
 400358 61696e00 77726974 65005f5f 676d6f6e  ain.write.__gmon
 400368 5f737461 72745f5f 00474c49 42435f32  _start__.GLIBC_2
 400378 2e322e35 00                          .2.5.
Contents of section .gnu.version:
 40037e 00000200 02000200 0000               ..........
Contents of section .gnu.version_r:
 400388 01000100 01000000 10000000 00000000  ................
 400398 751a6909 00000200 39000000 00000000  u.i.....9.......
Contents of section .rela.dyn:
 4003a8 f00f6000 00000000 06000000 03000000  ..`.............
 4003b8 00000000 00000000 f80f6000 00000000  ..........`.....
 4003c8 06000000 04000000 00000000 00000000  ................
Contents of section .rela.plt:
 4003d8 18106000 00000000 07000000 01000000  ..`.............
 4003e8 00000000 00000000 20106000 00000000  ........ .`.....
 4003f8 07000000 02000000 00000000 00000000  ................
Contents of section .init:
 400408 4883ec08 488b05e5 0b200048 85c07402  H...H.... .H..t.
 400418 ffd04883 c408c3                      ..H....
Contents of section .plt:
 400420 ff35e20b 2000ff25 e40b2000 0f1f4000  .5.. ..%.. ...@.
 400430 ff25e20b 20006800 000000e9 e0ffffff  .%.. .h.........
 400440 ff25da0b 20006801 000000e9 d0ffffff  .%.. .h.........
Contents of section .text:
 400450 31ed4989 d15e4889 e24883e4 f0505449  1.I..^H..H...PTI
 400460 c7c03006 400048c7 c1c00540 0048c7c7  ..0.@.H....@.H..
 400470 50054000 ff15760b 2000f40f 1f440000  P.@...v. ....D..
 400480 b83f1060 0055482d 38106000 4883f80e  .?.`.UH-8.`.H...
 400490 4889e576 1bb80000 00004885 c074115d  H..v......H..t.]
 4004a0 bf381060 00ffe066 0f1f8400 00000000  .8.`...f........
 4004b0 5dc30f1f 4000662e 0f1f8400 00000000  ]...@.f.........
 4004c0 be381060 00554881 ee381060 0048c1fe  .8.`.UH..8.`.H..
 4004d0 034889e5 4889f048 c1e83f48 01c648d1  .H..H..H..?H..H.
 4004e0 fe7415b8 00000000 4885c074 0b5dbf38  .t......H..t.].8
 4004f0 106000ff e00f1f00 5dc3660f 1f440000  .`......].f..D..
 400500 803d310b 20000075 11554889 e5e86eff  .=1. ..u.UH...n.
 400510 ffff5dc6 051e0b20 0001f3c3 0f1f4000  ..].... ......@.
 400520 bf080e60 0048833f 007505eb 930f1f00  ...`.H.?.u......
 400530 b8000000 004885c0 74f15548 89e5ffd0  .....H..t.UH....
 400540 5de97aff ffff662e 0f1f8400 00000000  ].z...f.........
 400550 554889e5 4883ec20 c745fc00 00000048  UH..H.. .E.....H
 400560 b8440640 00000000 00488945 f0c745ec  .D.@.....H.E..E.
 400570 00000000 837dec03 0f8d3000 0000488b  .....}....0...H.
 400580 75f0488b 7df04889 75e0e8b1 feffffbf  u.H.}.H.u.......
 400590 01000000 488b75e0 4889c2e8 90feffff  ....H.u.H.......
 4005a0 8b45ec83 c0018945 ece9c6ff ffffb809  .E.....E........
 4005b0 00000048 83c4205d c30f1f80 00000000  ...H.. ]........
 4005c0 41574156 4189ff41 5541544c 8d252608  AWAVA..AUATL.%&.
 4005d0 20005548 8d2d2608 20005349 89f64989   .UH.-&. .SI..I.
 4005e0 d54c29e5 4883ec08 48c1fd03 e817feff  .L).H...H.......
 4005f0 ff4885ed 742031db 0f1f8400 00000000  .H..t 1.........
 400600 4c89ea4c 89f64489 ff41ff14 dc4883c3  L..L..D..A...H..
 400610 014839dd 75ea4883 c4085b5d 415c415d  .H9.u.H...[]A\A]
 400620 415e415f c390662e 0f1f8400 00000000  A^A_..f.........
 400630 f3c3                                 ..
Contents of section .fini:
 400634 4883ec08 4883c408 c3                 H...H....
Contents of section .rodata:
 400640 01000200 48656c6c 6f20576f 726c640a  ....Hello World.
 400650 00                                   .
Contents of section .eh_frame_hdr:
 400654 011b033b 30000000 05000000 ccfdffff  ...;0...........
 400664 7c000000 fcfdffff 4c000000 fcfeffff  |.......L.......
 400674 a4000000 6cffffff c4000000 dcffffff  ....l...........
 400684 0c010000                             ....
Contents of section .eh_frame:
 400688 14000000 00000000 017a5200 01781001  .........zR..x..
 400698 1b0c0708 90010710 14000000 1c000000  ................
 4006a8 a8fdffff 2b000000 00000000 00000000  ....+...........
 4006b8 14000000 00000000 017a5200 01781001  .........zR..x..
 4006c8 1b0c0708 90010000 24000000 1c000000  ........$.......
 4006d8 48fdffff 30000000 000e1046 0e184a0f  H...0......F..J.
 4006e8 0b770880 003f1a3b 2a332422 00000000  .w...?.;*3$"....
 4006f8 1c000000 44000000 50feffff 69000000  ....D...P...i...
 400708 00410e10 8602430d 0602640c 07080000  .A....C...d.....
 400718 44000000 64000000 a0feffff 65000000  D...d.......e...
 400728 00420e10 8f02420e 188e0345 0e208d04  .B....B....E. ..
 400738 420e288c 05480e30 8606480e 3883074d  B.(..H.0..H.8..M
 400748 0e40720e 38410e30 410e2842 0e20420e  .@r.8A.0A.(B. B.
 400758 18420e10 420e0800 14000000 ac000000  .B..B...........
 400768 c8feffff 02000000 00000000 00000000  ................
 400778 00000000                             ....
Contents of section .init_array:
 600df8 20054000 00000000                     .@.....
Contents of section .fini_array:
 600e00 00054000 00000000                    ..@.....
Contents of section .jcr:
 600e08 00000000 00000000                    ........
Contents of section .dynamic:
 600e10 01000000 00000000 01000000 00000000  ................
 600e20 0c000000 00000000 08044000 00000000  ..........@.....
 600e30 0d000000 00000000 34064000 00000000  ........4.@.....
 600e40 19000000 00000000 f80d6000 00000000  ..........`.....
 600e50 1b000000 00000000 08000000 00000000  ................
 600e60 1a000000 00000000 000e6000 00000000  ..........`.....
 600e70 1c000000 00000000 08000000 00000000  ................
 600e80 04000000 00000000 78024000 00000000  ........x.@.....
 600e90 f5feff6f 00000000 a0024000 00000000  ...o......@.....
 600ea0 05000000 00000000 38034000 00000000  ........8.@.....
 600eb0 06000000 00000000 c0024000 00000000  ..........@.....
 600ec0 0a000000 00000000 45000000 00000000  ........E.......
 600ed0 0b000000 00000000 18000000 00000000  ................
 600ee0 15000000 00000000 00000000 00000000  ................
 600ef0 03000000 00000000 00106000 00000000  ..........`.....
 600f00 02000000 00000000 30000000 00000000  ........0.......
 600f10 14000000 00000000 07000000 00000000  ................
 600f20 17000000 00000000 d8034000 00000000  ..........@.....
 600f30 07000000 00000000 a8034000 00000000  ..........@.....
 600f40 08000000 00000000 30000000 00000000  ........0.......
 600f50 09000000 00000000 18000000 00000000  ................
 600f60 feffff6f 00000000 88034000 00000000  ...o......@.....
 600f70 ffffff6f 00000000 01000000 00000000  ...o............
 600f80 f0ffff6f 00000000 7e034000 00000000  ...o....~.@.....
 600f90 00000000 00000000 00000000 00000000  ................
 600fa0 00000000 00000000 00000000 00000000  ................
 600fb0 00000000 00000000 00000000 00000000  ................
 600fc0 00000000 00000000 00000000 00000000  ................
 600fd0 00000000 00000000 00000000 00000000  ................
 600fe0 00000000 00000000 00000000 00000000  ................
Contents of section .got:
 600ff0 00000000 00000000 00000000 00000000  ................
Contents of section .got.plt:
 601000 100e6000 00000000 00000000 00000000  ..`.............
 601010 00000000 00000000 36044000 00000000  ........6.@.....
 601020 46044000 00000000                    F.@.....
Contents of section .data:
 601028 00000000 00000000 00000000 00000000  ................
Contents of section .bss:
<skipping contents of bss section at [601038, 601040)>
Contents of section .comment:
 0000 4743433a 20284465 6269616e 20362e33  GCC: (Debian 6.3
 0010 2e302d31 382b6465 62397531 2920362e  .0-18+deb9u1) 6.
 0020 332e3020 32303137 30353136 00636c61  3.0 20170516.cla
 0030 6e672076 65727369 6f6e2031 302e302e  ng version 10.0.
 0040 3020282f 622f732f 772f6972 2f636163  0 (/b/s/w/ir/cac
 0050 68652f67 69742f63 68726f6d 69756d2e  he/git/chromium.
 0060 676f6f67 6c65736f 75726365 2e636f6d  googlesource.com
 0070 2d657874 65726e61 6c2d6769 74687562  -external-github
 0080 2e636f6d 2d6c6c76 6d2d6c6c 766d2d2d  .com-llvm-llvm--
 0090 70726f6a 65637420 63623437 62383738  project cb47b878
 00a0 33303137 61373663 35663265 34623937  3017a76c5f2e4b97
 00b0 34636664 36623232 63396631 64356666  4cfd6b22c9f1d5ff
 00c0 2900                                 ).
Contents of section .symtab:
 0000 00000000 00000000 00000000 00000000  ................
 0010 00000000 00000000 00000000 03000100  ................
 0020 38024000 00000000 00000000 00000000  8.@.............
 0030 00000000 03000200 54024000 00000000  ........T.@.....
 0040 00000000 00000000 00000000 03000300  ................
 0050 78024000 00000000 00000000 00000000  x.@.............
 0060 00000000 03000400 a0024000 00000000  ..........@.....
 0070 00000000 00000000 00000000 03000500  ................
 0080 c0024000 00000000 00000000 00000000  ..@.............
 0090 00000000 03000600 38034000 00000000  ........8.@.....
 00a0 00000000 00000000 00000000 03000700  ................
 00b0 7e034000 00000000 00000000 00000000  ~.@.............
 00c0 00000000 03000800 88034000 00000000  ..........@.....
 00d0 00000000 00000000 00000000 03000900  ................
 00e0 a8034000 00000000 00000000 00000000  ..@.............
 00f0 00000000 03000a00 d8034000 00000000  ..........@.....
 0100 00000000 00000000 00000000 03000b00  ................
 0110 08044000 00000000 00000000 00000000  ..@.............
 0120 00000000 03000c00 20044000 00000000  ........ .@.....
 0130 00000000 00000000 00000000 03000d00  ................
 0140 50044000 00000000 00000000 00000000  P.@.............
 0150 00000000 03000e00 34064000 00000000  ........4.@.....
 0160 00000000 00000000 00000000 03000f00  ................
 0170 40064000 00000000 00000000 00000000  @.@.............
 0180 00000000 03001000 54064000 00000000  ........T.@.....
 0190 00000000 00000000 00000000 03001100  ................
 01a0 88064000 00000000 00000000 00000000  ..@.............
 01b0 00000000 03001200 f80d6000 00000000  ..........`.....
 01c0 00000000 00000000 00000000 03001300  ................
 01d0 000e6000 00000000 00000000 00000000  ..`.............
 01e0 00000000 03001400 080e6000 00000000  ..........`.....
 01f0 00000000 00000000 00000000 03001500  ................
 0200 100e6000 00000000 00000000 00000000  ..`.............
 0210 00000000 03001600 f00f6000 00000000  ..........`.....
 0220 00000000 00000000 00000000 03001700  ................
 0230 00106000 00000000 00000000 00000000  ..`.............
 0240 00000000 03001800 28106000 00000000  ........(.`.....
 0250 00000000 00000000 00000000 03001900  ................
 0260 38106000 00000000 00000000 00000000  8.`.............
 0270 00000000 03001a00 00000000 00000000  ................
 0280 00000000 00000000 01000000 0400f1ff  ................
 0290 00000000 00000000 00000000 00000000  ................
 02a0 0c000000 01001400 080e6000 00000000  ..........`.....
 02b0 00000000 00000000 19000000 02000d00  ................
 02c0 80044000 00000000 00000000 00000000  ..@.............
 02d0 1b000000 02000d00 c0044000 00000000  ..........@.....
 02e0 00000000 00000000 2e000000 02000d00  ................
 02f0 00054000 00000000 00000000 00000000  ..@.............
 0300 44000000 01001900 38106000 00000000  D.......8.`.....
 0310 01000000 00000000 53000000 01001300  ........S.......
 0320 000e6000 00000000 00000000 00000000  ..`.............
 0330 7a000000 02000d00 20054000 00000000  z....... .@.....
 0340 00000000 00000000 86000000 01001200  ................
 0350 f80d6000 00000000 00000000 00000000  ..`.............
 0360 a5000000 0400f1ff 00000000 00000000  ................
 0370 00000000 00000000 01000000 0400f1ff  ................
 0380 00000000 00000000 00000000 00000000  ................
 0390 af000000 01001100 78074000 00000000  ........x.@.....
 03a0 00000000 00000000 bd000000 01001400  ................
 03b0 080e6000 00000000 00000000 00000000  ..`.............
 03c0 00000000 0400f1ff 00000000 00000000  ................
 03d0 00000000 00000000 c9000000 00001200  ................
 03e0 000e6000 00000000 00000000 00000000  ..`.............
 03f0 da000000 01001500 100e6000 00000000  ..........`.....
 0400 00000000 00000000 e3000000 00001200  ................
 0410 f80d6000 00000000 00000000 00000000  ..`.............
 0420 f6000000 00001000 54064000 00000000  ........T.@.....
 0430 00000000 00000000 09010000 01001700  ................
 0440 00106000 00000000 00000000 00000000  ..`.............
 0450 1f010000 12000d00 30064000 00000000  ........0.@.....
 0460 02000000 00000000 7e010000 20001800  ........~... ...
 0470 28106000 00000000 00000000 00000000  (.`.............
 0480 2f010000 12000000 00000000 00000000  /...............
 0490 00000000 00000000 42010000 10001800  ........B.......
 04a0 38106000 00000000 00000000 00000000  8.`.............
 04b0 29010000 12000e00 34064000 00000000  ).......4.@.....
 04c0 00000000 00000000 49010000 12000000  ........I.......
 04d0 00000000 00000000 00000000 00000000  ................
 04e0 5d010000 12000000 00000000 00000000  ]...............
 04f0 00000000 00000000 7c010000 10001800  ........|.......
 0500 28106000 00000000 00000000 00000000  (.`.............
 0510 89010000 20000000 00000000 00000000  .... ...........
 0520 00000000 00000000 98010000 11021800  ................
 0530 30106000 00000000 00000000 00000000  0.`.............
 0540 a5010000 11000f00 40064000 00000000  ........@.@.....
 0550 04000000 00000000 b4010000 12000d00  ................
 0560 c0054000 00000000 65000000 00000000  ..@.....e.......
 0570 d5000000 10001900 40106000 00000000  ........@.`.....
 0580 00000000 00000000 82010000 12000d00  ................
 0590 50044000 00000000 2b000000 00000000  P.@.....+.......
 05a0 c4010000 10001900 38106000 00000000  ........8.`.....
 05b0 00000000 00000000 d0010000 12000d00  ................
 05c0 50054000 00000000 69000000 00000000  P.@.....i.......
 05d0 d5010000 11021800 38106000 00000000  ........8.`.....
 05e0 00000000 00000000 be010000 12000b00  ................
 05f0 08044000 00000000 00000000 00000000  ..@.............
Contents of section .strtab:
 0000 00637274 73747566 662e6300 5f5f4a43  .crtstuff.c.__JC
 0010 525f4c49 53545f5f 00646572 65676973  R_LIST__.deregis
 0020 7465725f 746d5f63 6c6f6e65 73005f5f  ter_tm_clones.__
 0030 646f5f67 6c6f6261 6c5f6474 6f72735f  do_global_dtors_
 0040 61757800 636f6d70 6c657465 642e3639  aux.completed.69
 0050 3732005f 5f646f5f 676c6f62 616c5f64  72.__do_global_d
 0060 746f7273 5f617578 5f66696e 695f6172  tors_aux_fini_ar
 0070 7261795f 656e7472 79006672 616d655f  ray_entry.frame_
 0080 64756d6d 79005f5f 6672616d 655f6475  dummy.__frame_du
 0090 6d6d795f 696e6974 5f617272 61795f65  mmy_init_array_e
 00a0 6e747279 0068656c 6c6f2d63 2e63005f  ntry.hello-c.c._
 00b0 5f465241 4d455f45 4e445f5f 005f5f4a  _FRAME_END__.__J
 00c0 43525f45 4e445f5f 005f5f69 6e69745f  CR_END__.__init_
 00d0 61727261 795f656e 64005f44 594e414d  array_end._DYNAM
 00e0 4943005f 5f696e69 745f6172 7261795f  IC.__init_array_
 00f0 73746172 74005f5f 474e555f 45485f46  start.__GNU_EH_F
 0100 52414d45 5f484452 005f474c 4f42414c  RAME_HDR._GLOBAL
 0110 5f4f4646 5345545f 5441424c 455f005f  _OFFSET_TABLE_._
 0120 5f6c6962 635f6373 755f6669 6e690077  _libc_csu_fini.w
 0130 72697465 4040474c 4942435f 322e322e  rite@@GLIBC_2.2.
 0140 35005f65 64617461 00737472 6c656e40  5._edata.strlen@
 0150 40474c49 42435f32 2e322e35 005f5f6c  @GLIBC_2.2.5.__l
 0160 6962635f 73746172 745f6d61 696e4040  ibc_start_main@@
 0170 474c4942 435f322e 322e3500 5f5f6461  GLIBC_2.2.5.__da
 0180 74615f73 74617274 005f5f67 6d6f6e5f  ta_start.__gmon_
 0190 73746172 745f5f00 5f5f6473 6f5f6861  start__.__dso_ha
 01a0 6e646c65 005f494f 5f737464 696e5f75  ndle._IO_stdin_u
 01b0 73656400 5f5f6c69 62635f63 73755f69  sed.__libc_csu_i
 01c0 6e697400 5f5f6273 735f7374 61727400  nit.__bss_start.
 01d0 6d61696e 005f5f54 4d435f45 4e445f5f  main.__TMC_END__
 01e0 00                                   .
Contents of section .shstrtab:
 0000 002e7379 6d746162 002e7374 72746162  ..symtab..strtab
 0010 002e7368 73747274 6162002e 696e7465  ..shstrtab..inte
 0020 7270002e 6e6f7465 2e414249 2d746167  rp..note.ABI-tag
 0030 002e676e 752e6861 7368002e 64796e73  ..gnu.hash..dyns
 0040 796d002e 64796e73 7472002e 676e752e  ym..dynstr..gnu.
 0050 76657273 696f6e00 2e676e75 2e766572  version..gnu.ver
 0060 73696f6e 5f72002e 72656c61 2e64796e  sion_r..rela.dyn
 0070 002e7265 6c612e70 6c74002e 696e6974  ..rela.plt..init
 0080 002e7465 7874002e 66696e69 002e726f  ..text..fini..ro
 0090 64617461 002e6568 5f667261 6d655f68  data..eh_frame_h
 00a0 6472002e 65685f66 72616d65 002e696e  dr..eh_frame..in
 00b0 69745f61 72726179 002e6669 6e695f61  it_array..fini_a
 00c0 72726179 002e6a63 72002e64 796e616d  rray..jcr..dynam
 00d0 6963002e 676f7400 2e676f74 2e706c74  ic..got..got.plt
 00e0 002e6461 7461002e 62737300 2e636f6d  ..data..bss..com
 00f0 6d656e74 00                          ment.

Disassembly of section .interp:

0000000000400238 .interp:
  400238: 2f                           	<unknown>
  400239: 6c                           	insb	%dx, %es:(%rdi)
  40023a: 69 62 36 34 2f 6c 64         	imull	$1684811572, 54(%rdx), %esp
  400241: 2d 6c 69 6e 75               	subl	$1970170220, %eax
  400246: 78 2d                        	js	45 <write@@GLIBC_2.2.5+0x400275>
  400248: 78 38                        	js	56 <write@@GLIBC_2.2.5+0x400282>
  40024a: 36 2d 36 34 2e 73            	subl	$1932407862, %eax
  400250: 6f                           	outsl	(%rsi), %dx
  400251: 2e 32 00                     	xorb	%cs:(%rax), %al

Disassembly of section .note.ABI-tag:

0000000000400254 .note.ABI-tag:
  400254: 04 00                        	addb	$0, %al
  400256: 00 00                        	addb	%al, (%rax)
  400258: 10 00                        	adcb	%al, (%rax)
  40025a: 00 00                        	addb	%al, (%rax)
  40025c: 01 00                        	addl	%eax, (%rax)
  40025e: 00 00                        	addb	%al, (%rax)
  400260: 47 4e                        	<unknown>
  400262: 55                           	pushq	%rbp
  400263: 00 00                        	addb	%al, (%rax)
  400265: 00 00                        	addb	%al, (%rax)
  400267: 00 02                        	addb	%al, (%rdx)
  400269: 00 00                        	addb	%al, (%rax)
  40026b: 00 06                        	addb	%al, (%rsi)
  40026d: 00 00                        	addb	%al, (%rax)
  40026f: 00 20                        	addb	%ah, (%rax)
  400271: 00 00                        	addb	%al, (%rax)
  400273: 00                           	<unknown>

Disassembly of section .hash:

0000000000400278 .hash:
  400278: 03 00                        	addl	(%rax), %eax
  40027a: 00 00                        	addb	%al, (%rax)
  40027c: 05 00 00 00 04               	addl	$67108864, %eax
  400281: 00 00                        	addb	%al, (%rax)
  400283: 00 03                        	addb	%al, (%rbx)
		...
  400295: 00 00                        	addb	%al, (%rax)
  400297: 00 02                        	addb	%al, (%rdx)
  400299: 00 00                        	addb	%al, (%rax)
  40029b: 00 01                        	addb	%al, (%rcx)
  40029d: 00 00                        	addb	%al, (%rax)
  40029f: 00                           	<unknown>

Disassembly of section .gnu.hash:

00000000004002a0 .gnu.hash:
  4002a0: 01 00                        	addl	%eax, (%rax)
  4002a2: 00 00                        	addb	%al, (%rax)
  4002a4: 01 00                        	addl	%eax, (%rax)
  4002a6: 00 00                        	addb	%al, (%rax)
  4002a8: 01 00                        	addl	%eax, (%rax)
		...
  4002ba: 00 00                        	addb	%al, (%rax)

Disassembly of section .dynsym:

00000000004002c0 .dynsym:
		...
  4002d8: 24 00                        	andb	$0, %al
  4002da: 00 00                        	addb	%al, (%rax)
  4002dc: 12 00                        	adcb	(%rax), %al
		...
  4002ee: 00 00                        	addb	%al, (%rax)
  4002f0: 0b 00                        	orl	(%rax), %eax
  4002f2: 00 00                        	addb	%al, (%rax)
  4002f4: 12 00                        	adcb	(%rax), %al
		...
  400306: 00 00                        	addb	%al, (%rax)
  400308: 12 00                        	adcb	(%rax), %al
  40030a: 00 00                        	addb	%al, (%rax)
  40030c: 12 00                        	adcb	(%rax), %al
		...
  40031e: 00 00                        	addb	%al, (%rax)
  400320: 2a 00                        	subb	(%rax), %al
  400322: 00 00                        	addb	%al, (%rax)
  400324: 20 00                        	andb	%al, (%rax)
		...
  400336: 00 00                        	addb	%al, (%rax)

Disassembly of section .dynstr:

0000000000400338 .dynstr:
  400338: 00 6c 69 62                  	addb	%ch, 98(%rcx,%rbp,2)
  40033c: 63 2e                        	movslq	(%rsi), %ebp
  40033e: 73 6f                        	jae	111 <write@@GLIBC_2.2.5+0x4003af>
  400340: 2e 36 00 73 74               	addb	%dh, %ss:116(%rbx)
  400345: 72 6c                        	jb	108 <write@@GLIBC_2.2.5+0x4003b3>
  400347: 65 6e                        	outsb	%gs:(%rsi), %dx
  400349: 00 5f 5f                     	addb	%bl, 95(%rdi)
  40034c: 6c                           	insb	%dx, %es:(%rdi)
  40034d: 69 62 63 5f 73 74 61         	imull	$1635021663, 99(%rdx), %esp
  400354: 72 74                        	jb	116 <write@@GLIBC_2.2.5+0x4003ca>
  400356: 5f                           	popq	%rdi
  400357: 6d                           	insl	%dx, %es:(%rdi)
  400358: 61                           	<unknown>
  400359: 69 6e 00 77 72 69 74         	imull	$1953067639, (%rsi), %ebp
  400360: 65 00 5f 5f                  	addb	%bl, %gs:95(%rdi)
  400364: 67 6d                        	insl	%dx, %es:(%edi)
  400366: 6f                           	outsl	(%rsi), %dx
  400367: 6e                           	outsb	(%rsi), %dx
  400368: 5f                           	popq	%rdi
  400369: 73 74                        	jae	116 <write@@GLIBC_2.2.5+0x4003df>
  40036b: 61                           	<unknown>
  40036c: 72 74                        	jb	116 <write@@GLIBC_2.2.5+0x4003e2>
  40036e: 5f                           	popq	%rdi
  40036f: 5f                           	popq	%rdi
  400370: 00 47 4c                     	addb	%al, 76(%rdi)
  400373: 49 42                        	<unknown>
  400375: 43 5f                        	popq	%r15
  400377: 32 2e                        	xorb	(%rsi), %ch
  400379: 32 2e                        	xorb	(%rsi), %ch
  40037b: 35                           	<unknown>
  40037c: 00                           	<unknown>

Disassembly of section .gnu.version:

000000000040037e .gnu.version:
  40037e: 00 00                        	addb	%al, (%rax)
  400380: 02 00                        	addb	(%rax), %al
  400382: 02 00                        	addb	(%rax), %al
  400384: 02 00                        	addb	(%rax), %al
  400386: 00 00                        	addb	%al, (%rax)

Disassembly of section .gnu.version_r:

0000000000400388 .gnu.version_r:
  400388: 01 00                        	addl	%eax, (%rax)
  40038a: 01 00                        	addl	%eax, (%rax)
  40038c: 01 00                        	addl	%eax, (%rax)
  40038e: 00 00                        	addb	%al, (%rax)
  400390: 10 00                        	adcb	%al, (%rax)
  400392: 00 00                        	addb	%al, (%rax)
  400394: 00 00                        	addb	%al, (%rax)
  400396: 00 00                        	addb	%al, (%rax)
  400398: 75 1a                        	jne	26 <write@@GLIBC_2.2.5+0x4003b4>
  40039a: 69 09 00 00 02 00            	imull	$131072, (%rcx), %ecx
  4003a0: 39 00                        	cmpl	%eax, (%rax)
  4003a2: 00 00                        	addb	%al, (%rax)
  4003a4: 00 00                        	addb	%al, (%rax)
  4003a6: 00 00                        	addb	%al, (%rax)

Disassembly of section .rela.dyn:

00000000004003a8 .rela.dyn:
  4003a8: f0                           	lock
  4003a9: 0f 60 00                     	punpcklbw	(%rax), %mm0
  4003ac: 00 00                        	addb	%al, (%rax)
  4003ae: 00 00                        	addb	%al, (%rax)
  4003b0: 06                           	<unknown>
  4003b1: 00 00                        	addb	%al, (%rax)
  4003b3: 00 03                        	addb	%al, (%rbx)
		...
  4003bd: 00 00                        	addb	%al, (%rax)
  4003bf: 00 f8                        	addb	%bh, %al
  4003c1: 0f 60 00                     	punpcklbw	(%rax), %mm0
  4003c4: 00 00                        	addb	%al, (%rax)
  4003c6: 00 00                        	addb	%al, (%rax)
  4003c8: 06                           	<unknown>
  4003c9: 00 00                        	addb	%al, (%rax)
  4003cb: 00 04 00                     	addb	%al, (%rax,%rax)
		...
  4003d6: 00 00                        	addb	%al, (%rax)

Disassembly of section .rela.plt:

00000000004003d8 .rela.plt:
  4003d8: 18 10                        	sbbb	%dl, (%rax)
  4003da: 60                           	<unknown>
  4003db: 00 00                        	addb	%al, (%rax)
  4003dd: 00 00                        	addb	%al, (%rax)
  4003df: 00 07                        	addb	%al, (%rdi)
  4003e1: 00 00                        	addb	%al, (%rax)
  4003e3: 00 01                        	addb	%al, (%rcx)
		...
  4003ed: 00 00                        	addb	%al, (%rax)
  4003ef: 00 20                        	addb	%ah, (%rax)
  4003f1: 10 60 00                     	adcb	%ah, (%rax)
  4003f4: 00 00                        	addb	%al, (%rax)
  4003f6: 00 00                        	addb	%al, (%rax)
  4003f8: 07                           	<unknown>
  4003f9: 00 00                        	addb	%al, (%rax)
  4003fb: 00 02                        	addb	%al, (%rdx)
		...
  400405: 00 00                        	addb	%al, (%rax)
  400407: 00                           	<unknown>

Disassembly of section .init:

0000000000400408 _init:
  400408: 48 83 ec 08                  	subq	$8, %rsp
  40040c: 48 8b 05 e5 0b 20 00         	movq	2100197(%rip), %rax
  400413: 48 85 c0                     	testq	%rax, %rax
  400416: 74 02                        	je	2 <_init+0x12>
  400418: ff d0                        	callq	*%rax
  40041a: 48 83 c4 08                  	addq	$8, %rsp
  40041e: c3                           	retq

Disassembly of section .plt:

0000000000400420 .plt:
  400420: ff 35 e2 0b 20 00            	pushq	2100194(%rip)
  400426: ff 25 e4 0b 20 00            	jmpq	*2100196(%rip)
  40042c: 0f 1f 40 00                  	nopl	(%rax)

0000000000400430 write@plt:
  400430: ff 25 e2 0b 20 00            	jmpq	*2100194(%rip)
  400436: 68 00 00 00 00               	pushq	$0
  40043b: e9 e0 ff ff ff               	jmp	-32 <.plt>

0000000000400440 strlen@plt:
  400440: ff 25 da 0b 20 00            	jmpq	*2100186(%rip)
  400446: 68 01 00 00 00               	pushq	$1
  40044b: e9 d0 ff ff ff               	jmp	-48 <.plt>

Disassembly of section .text:

0000000000400450 _start:
  400450: 31 ed                        	xorl	%ebp, %ebp
  400452: 49 89 d1                     	movq	%rdx, %r9
  400455: 5e                           	popq	%rsi
  400456: 48 89 e2                     	movq	%rsp, %rdx
  400459: 48 83 e4 f0                  	andq	$-16, %rsp
  40045d: 50                           	pushq	%rax
  40045e: 54                           	pushq	%rsp
  40045f: 49 c7 c0 30 06 40 00         	movq	$4195888, %r8
  400466: 48 c7 c1 c0 05 40 00         	movq	$4195776, %rcx
  40046d: 48 c7 c7 50 05 40 00         	movq	$4195664, %rdi
  400474: ff 15 76 0b 20 00            	callq	*2100086(%rip)
  40047a: f4                           	hlt
  40047b: 0f 1f 44 00 00               	nopl	(%rax,%rax)

0000000000400480 deregister_tm_clones:
  400480: b8 3f 10 60 00               	movl	$6295615, %eax
  400485: 55                           	pushq	%rbp
  400486: 48 2d 38 10 60 00            	subq	$6295608, %rax
  40048c: 48 83 f8 0e                  	cmpq	$14, %rax
  400490: 48 89 e5                     	movq	%rsp, %rbp
  400493: 76 1b                        	jbe	27 <deregister_tm_clones+0x30>
  400495: b8 00 00 00 00               	movl	$0, %eax
  40049a: 48 85 c0                     	testq	%rax, %rax
  40049d: 74 11                        	je	17 <deregister_tm_clones+0x30>
  40049f: 5d                           	popq	%rbp
  4004a0: bf 38 10 60 00               	movl	$6295608, %edi
  4004a5: ff e0                        	jmpq	*%rax
  4004a7: 66 0f 1f 84 00 00 00 00 00   	nopw	(%rax,%rax)
  4004b0: 5d                           	popq	%rbp
  4004b1: c3                           	retq
  4004b2: 0f 1f 40 00                  	nopl	(%rax)
  4004b6: 66 2e 0f 1f 84 00 00 00 00 00	nopw	%cs:(%rax,%rax)

00000000004004c0 register_tm_clones:
  4004c0: be 38 10 60 00               	movl	$6295608, %esi
  4004c5: 55                           	pushq	%rbp
  4004c6: 48 81 ee 38 10 60 00         	subq	$6295608, %rsi
  4004cd: 48 c1 fe 03                  	sarq	$3, %rsi
  4004d1: 48 89 e5                     	movq	%rsp, %rbp
  4004d4: 48 89 f0                     	movq	%rsi, %rax
  4004d7: 48 c1 e8 3f                  	shrq	$63, %rax
  4004db: 48 01 c6                     	addq	%rax, %rsi
  4004de: 48 d1 fe                     	sarq	%rsi
  4004e1: 74 15                        	je	21 <register_tm_clones+0x38>
  4004e3: b8 00 00 00 00               	movl	$0, %eax
  4004e8: 48 85 c0                     	testq	%rax, %rax
  4004eb: 74 0b                        	je	11 <register_tm_clones+0x38>
  4004ed: 5d                           	popq	%rbp
  4004ee: bf 38 10 60 00               	movl	$6295608, %edi
  4004f3: ff e0                        	jmpq	*%rax
  4004f5: 0f 1f 00                     	nopl	(%rax)
  4004f8: 5d                           	popq	%rbp
  4004f9: c3                           	retq
  4004fa: 66 0f 1f 44 00 00            	nopw	(%rax,%rax)

0000000000400500 __do_global_dtors_aux:
  400500: 80 3d 31 0b 20 00 00         	cmpb	$0, 2100017(%rip)
  400507: 75 11                        	jne	17 <__do_global_dtors_aux+0x1a>
  400509: 55                           	pushq	%rbp
  40050a: 48 89 e5                     	movq	%rsp, %rbp
  40050d: e8 6e ff ff ff               	callq	-146 <deregister_tm_clones>
  400512: 5d                           	popq	%rbp
  400513: c6 05 1e 0b 20 00 01         	movb	$1, 2099998(%rip)
  40051a: f3 c3                        	rep		retq
  40051c: 0f 1f 40 00                  	nopl	(%rax)

0000000000400520 frame_dummy:
  400520: bf 08 0e 60 00               	movl	$6295048, %edi
  400525: 48 83 3f 00                  	cmpq	$0, (%rdi)
  400529: 75 05                        	jne	5 <frame_dummy+0x10>
  40052b: eb 93                        	jmp	-109 <register_tm_clones>
  40052d: 0f 1f 00                     	nopl	(%rax)
  400530: b8 00 00 00 00               	movl	$0, %eax
  400535: 48 85 c0                     	testq	%rax, %rax
  400538: 74 f1                        	je	-15 <frame_dummy+0xb>
  40053a: 55                           	pushq	%rbp
  40053b: 48 89 e5                     	movq	%rsp, %rbp
  40053e: ff d0                        	callq	*%rax
  400540: 5d                           	popq	%rbp
  400541: e9 7a ff ff ff               	jmp	-134 <register_tm_clones>
  400546: 66 2e 0f 1f 84 00 00 00 00 00	nopw	%cs:(%rax,%rax)

0000000000400550 main:
  400550: 55                           	pushq	%rbp
  400551: 48 89 e5                     	movq	%rsp, %rbp
  400554: 48 83 ec 20                  	subq	$32, %rsp
  400558: c7 45 fc 00 00 00 00         	movl	$0, -4(%rbp)
  40055f: 48 b8 44 06 40 00 00 00 00 00	movabsq	$4195908, %rax
  400569: 48 89 45 f0                  	movq	%rax, -16(%rbp)
  40056d: c7 45 ec 00 00 00 00         	movl	$0, -20(%rbp)
  400574: 83 7d ec 03                  	cmpl	$3, -20(%rbp)
  400578: 0f 8d 30 00 00 00            	jge	48 <main+0x5e>
  40057e: 48 8b 75 f0                  	movq	-16(%rbp), %rsi
  400582: 48 8b 7d f0                  	movq	-16(%rbp), %rdi
  400586: 48 89 75 e0                  	movq	%rsi, -32(%rbp)
  40058a: e8 b1 fe ff ff               	callq	-335 <strlen@plt>
  40058f: bf 01 00 00 00               	movl	$1, %edi
  400594: 48 8b 75 e0                  	movq	-32(%rbp), %rsi
  400598: 48 89 c2                     	movq	%rax, %rdx
  40059b: e8 90 fe ff ff               	callq	-368 <write@plt>
  4005a0: 8b 45 ec                     	movl	-20(%rbp), %eax
  4005a3: 83 c0 01                     	addl	$1, %eax
  4005a6: 89 45 ec                     	movl	%eax, -20(%rbp)
  4005a9: e9 c6 ff ff ff               	jmp	-58 <main+0x24>
  4005ae: b8 09 00 00 00               	movl	$9, %eax
  4005b3: 48 83 c4 20                  	addq	$32, %rsp
  4005b7: 5d                           	popq	%rbp
  4005b8: c3                           	retq
  4005b9: 0f 1f 80 00 00 00 00         	nopl	(%rax)

00000000004005c0 __libc_csu_init:
  4005c0: 41 57                        	pushq	%r15
  4005c2: 41 56                        	pushq	%r14
  4005c4: 41 89 ff                     	movl	%edi, %r15d
  4005c7: 41 55                        	pushq	%r13
  4005c9: 41 54                        	pushq	%r12
  4005cb: 4c 8d 25 26 08 20 00         	leaq	2099238(%rip), %r12
  4005d2: 55                           	pushq	%rbp
  4005d3: 48 8d 2d 26 08 20 00         	leaq	2099238(%rip), %rbp
  4005da: 53                           	pushq	%rbx
  4005db: 49 89 f6                     	movq	%rsi, %r14
  4005de: 49 89 d5                     	movq	%rdx, %r13
  4005e1: 4c 29 e5                     	subq	%r12, %rbp
  4005e4: 48 83 ec 08                  	subq	$8, %rsp
  4005e8: 48 c1 fd 03                  	sarq	$3, %rbp
  4005ec: e8 17 fe ff ff               	callq	-489 <_init>
  4005f1: 48 85 ed                     	testq	%rbp, %rbp
  4005f4: 74 20                        	je	32 <__libc_csu_init+0x56>
  4005f6: 31 db                        	xorl	%ebx, %ebx
  4005f8: 0f 1f 84 00 00 00 00 00      	nopl	(%rax,%rax)
  400600: 4c 89 ea                     	movq	%r13, %rdx
  400603: 4c 89 f6                     	movq	%r14, %rsi
  400606: 44 89 ff                     	movl	%r15d, %edi
  400609: 41 ff 14 dc                  	callq	*(%r12,%rbx,8)
  40060d: 48 83 c3 01                  	addq	$1, %rbx
  400611: 48 39 dd                     	cmpq	%rbx, %rbp
  400614: 75 ea                        	jne	-22 <__libc_csu_init+0x40>
  400616: 48 83 c4 08                  	addq	$8, %rsp
  40061a: 5b                           	popq	%rbx
  40061b: 5d                           	popq	%rbp
  40061c: 41 5c                        	popq	%r12
  40061e: 41 5d                        	popq	%r13
  400620: 41 5e                        	popq	%r14
  400622: 41 5f                        	popq	%r15
  400624: c3                           	retq
  400625: 90                           	nop
  400626: 66 2e 0f 1f 84 00 00 00 00 00	nopw	%cs:(%rax,%rax)

0000000000400630 __libc_csu_fini:
  400630: f3 c3                        	rep		retq

Disassembly of section .fini:

0000000000400634 _fini:
  400634: 48 83 ec 08                  	subq	$8, %rsp
  400638: 48 83 c4 08                  	addq	$8, %rsp
  40063c: c3                           	retq

Disassembly of section .rodata:

0000000000400640 _IO_stdin_used:
  400640: 01 00                        	addl	%eax, (%rax)
  400642: 02 00                        	addb	(%rax), %al
  400644: 48 65                        	gs
  400646: 6c                           	insb	%dx, %es:(%rdi)
  400647: 6c                           	insb	%dx, %es:(%rdi)
  400648: 6f                           	outsl	(%rsi), %dx
  400649: 20 57 6f                     	andb	%dl, 111(%rdi)
  40064c: 72 6c                        	jb	108 <write@@GLIBC_2.2.5+0x4006ba>
  40064e: 64 0a 00                     	orb	%fs:(%rax), %al

Disassembly of section .eh_frame_hdr:

0000000000400654 __GNU_EH_FRAME_HDR:
  400654: 01 1b                        	addl	%ebx, (%rbx)
  400656: 03 3b                        	addl	(%rbx), %edi
  400658: 30 00                        	xorb	%al, (%rax)
  40065a: 00 00                        	addb	%al, (%rax)
  40065c: 05 00 00 00 cc               	addl	$3422552064, %eax
  400661: fd                           	std
  400662: ff ff                        	<unknown>
  400664: 7c 00                        	jl	0 <__GNU_EH_FRAME_HDR+0x12>
  400666: 00 00                        	addb	%al, (%rax)
  400668: fc                           	cld
  400669: fd                           	std
  40066a: ff ff                        	<unknown>
  40066c: 4c 00 00                     	addb	%r8b, (%rax)
  40066f: 00 fc                        	addb	%bh, %ah
  400671: fe ff                        	<unknown>
  400673: ff a4 00 00 00 6c ff         	jmpq	*-9699328(%rax,%rax)
  40067a: ff ff                        	<unknown>
  40067c: c4 00 00                     	<unknown>
  40067f: 00 dc                        	addb	%bl, %ah
  400681: ff ff                        	<unknown>
  400683: ff 0c 01                     	decl	(%rcx,%rax)
  400686: 00 00                        	addb	%al, (%rax)

Disassembly of section .eh_frame:

0000000000400688 .eh_frame:
  400688: 14 00                        	adcb	$0, %al
  40068a: 00 00                        	addb	%al, (%rax)
  40068c: 00 00                        	addb	%al, (%rax)
  40068e: 00 00                        	addb	%al, (%rax)
  400690: 01 7a 52                     	addl	%edi, 82(%rdx)
  400693: 00 01                        	addb	%al, (%rcx)
  400695: 78 10                        	js	16 <.eh_frame+0x1f>
  400697: 01 1b                        	addl	%ebx, (%rbx)
  400699: 0c 07                        	orb	$7, %al
  40069b: 08 90 01 07 10 14            	orb	%dl, 336594689(%rax)
  4006a1: 00 00                        	addb	%al, (%rax)
  4006a3: 00 1c 00                     	addb	%bl, (%rax,%rax)
  4006a6: 00 00                        	addb	%al, (%rax)
  4006a8: a8 fd                        	testb	$-3, %al
  4006aa: ff ff                        	<unknown>
  4006ac: 2b 00                        	subl	(%rax), %eax
		...
  4006b6: 00 00                        	addb	%al, (%rax)
  4006b8: 14 00                        	adcb	$0, %al
  4006ba: 00 00                        	addb	%al, (%rax)
  4006bc: 00 00                        	addb	%al, (%rax)
  4006be: 00 00                        	addb	%al, (%rax)
  4006c0: 01 7a 52                     	addl	%edi, 82(%rdx)
  4006c3: 00 01                        	addb	%al, (%rcx)
  4006c5: 78 10                        	js	16 <.eh_frame+0x4f>
  4006c7: 01 1b                        	addl	%ebx, (%rbx)
  4006c9: 0c 07                        	orb	$7, %al
  4006cb: 08 90 01 00 00 24            	orb	%dl, 603979777(%rax)
  4006d1: 00 00                        	addb	%al, (%rax)
  4006d3: 00 1c 00                     	addb	%bl, (%rax,%rax)
  4006d6: 00 00                        	addb	%al, (%rax)
  4006d8: 48 fd                        	std
  4006da: ff ff                        	<unknown>
  4006dc: 30 00                        	xorb	%al, (%rax)
  4006de: 00 00                        	addb	%al, (%rax)
  4006e0: 00 0e                        	addb	%cl, (%rsi)
  4006e2: 10 46 0e                     	adcb	%al, 14(%rsi)
  4006e5: 18 4a 0f                     	sbbb	%cl, 15(%rdx)
  4006e8: 0b 77 08                     	orl	8(%rdi), %esi
  4006eb: 80 00 3f                     	addb	$63, (%rax)
  4006ee: 1a 3b                        	sbbb	(%rbx), %bh
  4006f0: 2a 33                        	subb	(%rbx), %dh
  4006f2: 24 22                        	andb	$34, %al
  4006f4: 00 00                        	addb	%al, (%rax)
  4006f6: 00 00                        	addb	%al, (%rax)
  4006f8: 1c 00                        	sbbb	$0, %al
  4006fa: 00 00                        	addb	%al, (%rax)
  4006fc: 44 00 00                     	addb	%r8b, (%rax)
  4006ff: 00 50 fe                     	addb	%dl, -2(%rax)
  400702: ff ff                        	<unknown>
  400704: 69 00 00 00 00 41            	imull	$1090519040, (%rax), %eax
  40070a: 0e                           	<unknown>
  40070b: 10 86 02 43 0d 06            	adcb	%al, 101532418(%rsi)
  400711: 02 64 0c 07                  	addb	7(%rsp,%rcx), %ah
  400715: 08 00                        	orb	%al, (%rax)
  400717: 00 44 00 00                  	addb	%al, (%rax,%rax)
  40071b: 00 64 00 00                  	addb	%ah, (%rax,%rax)
  40071f: 00 a0 fe ff ff 65            	addb	%ah, 1711276030(%rax)
  400725: 00 00                        	addb	%al, (%rax)
  400727: 00 00                        	addb	%al, (%rax)
  400729: 42 0e                        	<unknown>
  40072b: 10 8f 02 42 0e 18            	adcb	%cl, 403587586(%rdi)
  400731: 8e 03                        	movw	(%rbx), %es
  400733: 45 0e                        	<unknown>
  400735: 20 8d 04 42 0e 28            	andb	%cl, 672023044(%rbp)
  40073b: 8c 05 48 0e 30 86            	movw	%es, -2043670968(%rip)
  400741: 06                           	<unknown>
  400742: 48 0e                        	<unknown>
  400744: 38 83 07 4d 0e 40            	cmpb	%al, 1074679047(%rbx)
  40074a: 72 0e                        	jb	14 <.eh_frame+0xd2>
  40074c: 38 41 0e                     	cmpb	%al, 14(%rcx)
  40074f: 30 41 0e                     	xorb	%al, 14(%rcx)
  400752: 28 42 0e                     	subb	%al, 14(%rdx)
  400755: 20 42 0e                     	andb	%al, 14(%rdx)
  400758: 18 42 0e                     	sbbb	%al, 14(%rdx)
  40075b: 10 42 0e                     	adcb	%al, 14(%rdx)
  40075e: 08 00                        	orb	%al, (%rax)
  400760: 14 00                        	adcb	$0, %al
  400762: 00 00                        	addb	%al, (%rax)
  400764: ac                           	lodsb	(%rsi), %al
  400765: 00 00                        	addb	%al, (%rax)
  400767: 00 c8                        	addb	%cl, %al
  400769: fe ff                        	<unknown>
  40076b: ff 02                        	incl	(%rdx)
		...
  400775: 00 00                        	addb	%al, (%rax)
  400777: 00 00                        	addb	%al, (%rax)

0000000000400778 __FRAME_END__:
  400778: 00 00                        	addb	%al, (%rax)
  40077a: 00 00                        	addb	%al, (%rax)

Disassembly of section .init_array:

0000000000600df8 __init_array_start:
  600df8: 20 05 40 00 00 00            	andb	%al, 64(%rip)
  600dfe: 00 00                        	addb	%al, (%rax)

Disassembly of section .fini_array:

0000000000600e00 __do_global_dtors_aux_fini_array_entry:
  600e00: 00 05 40 00 00 00            	addb	%al, 64(%rip)
  600e06: 00 00                        	addb	%al, (%rax)

Disassembly of section .jcr:

0000000000600e08 __JCR_LIST__:
		...

Disassembly of section .dynamic:

0000000000600e10 _DYNAMIC:
  600e10: 01 00                        	addl	%eax, (%rax)
  600e12: 00 00                        	addb	%al, (%rax)
  600e14: 00 00                        	addb	%al, (%rax)
  600e16: 00 00                        	addb	%al, (%rax)
  600e18: 01 00                        	addl	%eax, (%rax)
  600e1a: 00 00                        	addb	%al, (%rax)
  600e1c: 00 00                        	addb	%al, (%rax)
  600e1e: 00 00                        	addb	%al, (%rax)
  600e20: 0c 00                        	orb	$0, %al
  600e22: 00 00                        	addb	%al, (%rax)
  600e24: 00 00                        	addb	%al, (%rax)
  600e26: 00 00                        	addb	%al, (%rax)
  600e28: 08 04 40                     	orb	%al, (%rax,%rax,2)
  600e2b: 00 00                        	addb	%al, (%rax)
  600e2d: 00 00                        	addb	%al, (%rax)
  600e2f: 00 0d 00 00 00 00            	addb	%cl, (%rip)
  600e35: 00 00                        	addb	%al, (%rax)
  600e37: 00 34 06                     	addb	%dh, (%rsi,%rax)
  600e3a: 40 00 00                     	addb	%al, (%rax)
  600e3d: 00 00                        	addb	%al, (%rax)
  600e3f: 00 19                        	addb	%bl, (%rcx)
  600e41: 00 00                        	addb	%al, (%rax)
  600e43: 00 00                        	addb	%al, (%rax)
  600e45: 00 00                        	addb	%al, (%rax)
  600e47: 00 f8                        	addb	%bh, %al
  600e49: 0d 60 00 00 00               	orl	$96, %eax
  600e4e: 00 00                        	addb	%al, (%rax)
  600e50: 1b 00                        	sbbl	(%rax), %eax
  600e52: 00 00                        	addb	%al, (%rax)
  600e54: 00 00                        	addb	%al, (%rax)
  600e56: 00 00                        	addb	%al, (%rax)
  600e58: 08 00                        	orb	%al, (%rax)
  600e5a: 00 00                        	addb	%al, (%rax)
  600e5c: 00 00                        	addb	%al, (%rax)
  600e5e: 00 00                        	addb	%al, (%rax)
  600e60: 1a 00                        	sbbb	(%rax), %al
  600e62: 00 00                        	addb	%al, (%rax)
  600e64: 00 00                        	addb	%al, (%rax)
  600e66: 00 00                        	addb	%al, (%rax)
  600e68: 00 0e                        	addb	%cl, (%rsi)
  600e6a: 60                           	<unknown>
  600e6b: 00 00                        	addb	%al, (%rax)
  600e6d: 00 00                        	addb	%al, (%rax)
  600e6f: 00 1c 00                     	addb	%bl, (%rax,%rax)
  600e72: 00 00                        	addb	%al, (%rax)
  600e74: 00 00                        	addb	%al, (%rax)
  600e76: 00 00                        	addb	%al, (%rax)
  600e78: 08 00                        	orb	%al, (%rax)
  600e7a: 00 00                        	addb	%al, (%rax)
  600e7c: 00 00                        	addb	%al, (%rax)
  600e7e: 00 00                        	addb	%al, (%rax)
  600e80: 04 00                        	addb	$0, %al
  600e82: 00 00                        	addb	%al, (%rax)
  600e84: 00 00                        	addb	%al, (%rax)
  600e86: 00 00                        	addb	%al, (%rax)
  600e88: 78 02                        	js	2 <_DYNAMIC+0x7c>
  600e8a: 40 00 00                     	addb	%al, (%rax)
  600e8d: 00 00                        	addb	%al, (%rax)
  600e8f: 00 f5                        	addb	%dh, %ch
  600e91: fe ff                        	<unknown>
  600e93: 6f                           	outsl	(%rsi), %dx
  600e94: 00 00                        	addb	%al, (%rax)
  600e96: 00 00                        	addb	%al, (%rax)
  600e98: a0 02 40 00 00 00 00 00 05   	movabsb	360287970189656066, %al
  600ea1: 00 00                        	addb	%al, (%rax)
  600ea3: 00 00                        	addb	%al, (%rax)
  600ea5: 00 00                        	addb	%al, (%rax)
  600ea7: 00 38                        	addb	%bh, (%rax)
  600ea9: 03 40 00                     	addl	(%rax), %eax
  600eac: 00 00                        	addb	%al, (%rax)
  600eae: 00 00                        	addb	%al, (%rax)
  600eb0: 06                           	<unknown>
  600eb1: 00 00                        	addb	%al, (%rax)
  600eb3: 00 00                        	addb	%al, (%rax)
  600eb5: 00 00                        	addb	%al, (%rax)
  600eb7: 00 c0                        	addb	%al, %al
  600eb9: 02 40 00                     	addb	(%rax), %al
  600ebc: 00 00                        	addb	%al, (%rax)
  600ebe: 00 00                        	addb	%al, (%rax)
  600ec0: 0a 00                        	orb	(%rax), %al
  600ec2: 00 00                        	addb	%al, (%rax)
  600ec4: 00 00                        	addb	%al, (%rax)
  600ec6: 00 00                        	addb	%al, (%rax)
  600ec8: 45 00 00                     	addb	%r8b, (%r8)
  600ecb: 00 00                        	addb	%al, (%rax)
  600ecd: 00 00                        	addb	%al, (%rax)
  600ecf: 00 0b                        	addb	%cl, (%rbx)
  600ed1: 00 00                        	addb	%al, (%rax)
  600ed3: 00 00                        	addb	%al, (%rax)
  600ed5: 00 00                        	addb	%al, (%rax)
  600ed7: 00 18                        	addb	%bl, (%rax)
  600ed9: 00 00                        	addb	%al, (%rax)
  600edb: 00 00                        	addb	%al, (%rax)
  600edd: 00 00                        	addb	%al, (%rax)
  600edf: 00 15 00 00 00 00            	addb	%dl, (%rip)
		...
  600eed: 00 00                        	addb	%al, (%rax)
  600eef: 00 03                        	addb	%al, (%rbx)
		...
  600ef9: 10 60 00                     	adcb	%ah, (%rax)
  600efc: 00 00                        	addb	%al, (%rax)
  600efe: 00 00                        	addb	%al, (%rax)
  600f00: 02 00                        	addb	(%rax), %al
  600f02: 00 00                        	addb	%al, (%rax)
  600f04: 00 00                        	addb	%al, (%rax)
  600f06: 00 00                        	addb	%al, (%rax)
  600f08: 30 00                        	xorb	%al, (%rax)
  600f0a: 00 00                        	addb	%al, (%rax)
  600f0c: 00 00                        	addb	%al, (%rax)
  600f0e: 00 00                        	addb	%al, (%rax)
  600f10: 14 00                        	adcb	$0, %al
  600f12: 00 00                        	addb	%al, (%rax)
  600f14: 00 00                        	addb	%al, (%rax)
  600f16: 00 00                        	addb	%al, (%rax)
  600f18: 07                           	<unknown>
  600f19: 00 00                        	addb	%al, (%rax)
  600f1b: 00 00                        	addb	%al, (%rax)
  600f1d: 00 00                        	addb	%al, (%rax)
  600f1f: 00 17                        	addb	%dl, (%rdi)
  600f21: 00 00                        	addb	%al, (%rax)
  600f23: 00 00                        	addb	%al, (%rax)
  600f25: 00 00                        	addb	%al, (%rax)
  600f27: 00 d8                        	addb	%bl, %al
  600f29: 03 40 00                     	addl	(%rax), %eax
  600f2c: 00 00                        	addb	%al, (%rax)
  600f2e: 00 00                        	addb	%al, (%rax)
  600f30: 07                           	<unknown>
  600f31: 00 00                        	addb	%al, (%rax)
  600f33: 00 00                        	addb	%al, (%rax)
  600f35: 00 00                        	addb	%al, (%rax)
  600f37: 00 a8 03 40 00 00            	addb	%ch, 16387(%rax)
  600f3d: 00 00                        	addb	%al, (%rax)
  600f3f: 00 08                        	addb	%cl, (%rax)
  600f41: 00 00                        	addb	%al, (%rax)
  600f43: 00 00                        	addb	%al, (%rax)
  600f45: 00 00                        	addb	%al, (%rax)
  600f47: 00 30                        	addb	%dh, (%rax)
  600f49: 00 00                        	addb	%al, (%rax)
  600f4b: 00 00                        	addb	%al, (%rax)
  600f4d: 00 00                        	addb	%al, (%rax)
  600f4f: 00 09                        	addb	%cl, (%rcx)
  600f51: 00 00                        	addb	%al, (%rax)
  600f53: 00 00                        	addb	%al, (%rax)
  600f55: 00 00                        	addb	%al, (%rax)
  600f57: 00 18                        	addb	%bl, (%rax)
  600f59: 00 00                        	addb	%al, (%rax)
  600f5b: 00 00                        	addb	%al, (%rax)
  600f5d: 00 00                        	addb	%al, (%rax)
  600f5f: 00 fe                        	addb	%bh, %dh
  600f61: ff ff                        	<unknown>
  600f63: 6f                           	outsl	(%rsi), %dx
  600f64: 00 00                        	addb	%al, (%rax)
  600f66: 00 00                        	addb	%al, (%rax)
  600f68: 88 03                        	movb	%al, (%rbx)
  600f6a: 40 00 00                     	addb	%al, (%rax)
  600f6d: 00 00                        	addb	%al, (%rax)
  600f6f: 00 ff                        	addb	%bh, %bh
  600f71: ff ff                        	<unknown>
  600f73: 6f                           	outsl	(%rsi), %dx
  600f74: 00 00                        	addb	%al, (%rax)
  600f76: 00 00                        	addb	%al, (%rax)
  600f78: 01 00                        	addl	%eax, (%rax)
  600f7a: 00 00                        	addb	%al, (%rax)
  600f7c: 00 00                        	addb	%al, (%rax)
  600f7e: 00 00                        	addb	%al, (%rax)
  600f80: f0                           	lock
  600f81: ff ff                        	<unknown>
  600f83: 6f                           	outsl	(%rsi), %dx
  600f84: 00 00                        	addb	%al, (%rax)
  600f86: 00 00                        	addb	%al, (%rax)
  600f88: 7e 03                        	jle	3 <_DYNAMIC+0x17d>
  600f8a: 40 00 00                     	addb	%al, (%rax)
		...
  600fed: 00 00                        	addb	%al, (%rax)
  600fef: 00                           	<unknown>

Disassembly of section .got:

0000000000600ff0 .got:
		...

Disassembly of section .got.plt:

0000000000601000 _GLOBAL_OFFSET_TABLE_:
  601000: 10 0e                        	adcb	%cl, (%rsi)
  601002: 60                           	<unknown>
		...
  601017: 00 36                        	addb	%dh, (%rsi)
  601019: 04 40                        	addb	$64, %al
  60101b: 00 00                        	addb	%al, (%rax)
  60101d: 00 00                        	addb	%al, (%rax)
  60101f: 00 46 04                     	addb	%al, 4(%rsi)
  601022: 40 00 00                     	addb	%al, (%rax)
  601025: 00 00                        	addb	%al, (%rax)
  601027: 00                           	<unknown>

Disassembly of section .data:

0000000000601028 data_start:
		...

0000000000601030 __dso_handle:
		...

Disassembly of section .bss:

0000000000601038 completed.6972:
...

Disassembly of section .comment:

0000000000000000 .comment:
       0: 47 43                        	<unknown>
       2: 43 3a 20                     	cmpb	(%r8), %spl
       5: 28 44 65 62                  	subb	%al, 98(%rbp,%riz,2)
       9: 69 61 6e 20 36 2e 33         	imull	$858666528, 110(%rcx), %esp
      10: 2e 30 2d 31 38 2b 64         	xorb	%ch, %cs:1680554033(%rip)
      17: 65 62                        	<unknown>
      19: 39 75 31                     	cmpl	%esi, 49(%rbp)
      1c: 29 20                        	subl	%esp, (%rax)
      1e: 36 2e 33 2e                  	xorl	%cs:(%rsi), %ebp
      22: 30 20                        	xorb	%ah, (%rax)
      24: 32 30                        	xorb	(%rax), %dh
      26: 31 37                        	xorl	%esi, (%rdi)
      28: 30 35 31 36 00 63            	xorb	%dh, 1660958257(%rip)
      2e: 6c                           	insb	%dx, %es:(%rdi)
      2f: 61                           	<unknown>
      30: 6e                           	outsb	(%rsi), %dx
      31: 67 20 76 65                  	andb	%dh, 101(%esi)
      35: 72 73                        	jb	115 <.comment+0xaa>
      37: 69 6f 6e 20 31 30 2e         	imull	$774910240, 110(%rdi), %ebp
      3e: 30 2e                        	xorb	%ch, (%rsi)
      40: 30 20                        	xorb	%ah, (%rax)
      42: 28 2f                        	subb	%ch, (%rdi)
      44: 62                           	<unknown>
      45: 2f                           	<unknown>
      46: 73 2f                        	jae	47 <.comment+0x77>
      48: 77 2f                        	ja	47 <.comment+0x79>
      4a: 69 72 2f 63 61 63 68         	imull	$1751343459, 47(%rdx), %esi
      51: 65 2f                        	<unknown>
      53: 67 69 74 2f 63 68 72 6f 6d   	imull	$1836020328, 99(%edi,%ebp), %esi
      5c: 69 75 6d 2e 67 6f 6f         	imull	$1869571886, 109(%rbp), %esi
      63: 67 6c                        	insb	%dx, %es:(%edi)
      65: 65 73 6f                     	jae	111 <.comment+0xd7>
      68: 75 72                        	jne	114 <.comment+0xdc>
      6a: 63 65 2e                     	movslq	46(%rbp), %esp
      6d: 63 6f 6d                     	movslq	109(%rdi), %ebp
      70: 2d 65 78 74 65               	subl	$1702131813, %eax
      75: 72 6e                        	jb	110 <.comment+0xe5>
      77: 61                           	<unknown>
      78: 6c                           	insb	%dx, %es:(%rdi)
      79: 2d 67 69 74 68               	subl	$1752459623, %eax
      7e: 75 62                        	jne	98 <.comment+0xe2>
      80: 2e 63 6f 6d                  	movslq	%cs:109(%rdi), %ebp
      84: 2d 6c 6c 76 6d               	subl	$1836477548, %eax
      89: 2d 6c 6c 76 6d               	subl	$1836477548, %eax
      8e: 2d 2d 70 72 6f               	subl	$1869770797, %eax
      93: 6a 65                        	pushq	$101
      95: 63 74 20 63                  	movslq	99(%rax,%riz), %esi
      99: 62                           	<unknown>
      9a: 34 37                        	xorb	$55, %al
      9c: 62                           	<unknown>
      9d: 38 37                        	cmpb	%dh, (%rdi)
      9f: 38 33                        	cmpb	%dh, (%rbx)
      a1: 30 31                        	xorb	%dh, (%rcx)
      a3: 37                           	<unknown>
      a4: 61                           	<unknown>
      a5: 37                           	<unknown>
      a6: 36 63 35 66 32 65 34         	movslq	%ss:879047270(%rip), %esi
      ad: 62                           	<unknown>
      ae: 39 37                        	cmpl	%esi, (%rdi)
      b0: 34 63                        	xorb	$99, %al
      b2: 66 64 36 62                  	<unknown>
      b6: 32 32                        	xorb	(%rdx), %dh
      b8: 63 39                        	movslq	(%rcx), %edi
      ba: 66 31 64 35 66               	xorw	%sp, 102(%rbp,%rsi)
      bf: 66 29 00                     	subw	%ax, (%rax)

Disassembly of section .symtab:

0000000000000000 .symtab:
		...
      1c: 03 00                        	addl	(%rax), %eax
      1e: 01 00                        	addl	%eax, (%rax)
      20: 38 02                        	cmpb	%al, (%rdx)
      22: 40 00 00                     	addb	%al, (%rax)
		...
      31: 00 00                        	addb	%al, (%rax)
      33: 00 03                        	addb	%al, (%rbx)
      35: 00 02                        	addb	%al, (%rdx)
      37: 00 54 02 40                  	addb	%dl, 64(%rdx,%rax)
		...
      4b: 00 03                        	addb	%al, (%rbx)
      4d: 00 03                        	addb	%al, (%rbx)
      4f: 00 78 02                     	addb	%bh, 2(%rax)
      52: 40 00 00                     	addb	%al, (%rax)
		...
      61: 00 00                        	addb	%al, (%rax)
      63: 00 03                        	addb	%al, (%rbx)
      65: 00 04 00                     	addb	%al, (%rax,%rax)
      68: a0 02 40 00 00 00 00 00 00   	movabsb	16386, %al
		...
      79: 00 00                        	addb	%al, (%rax)
      7b: 00 03                        	addb	%al, (%rbx)
      7d: 00 05 00 c0 02 40            	addb	%al, 1073922048(%rip)
		...
      93: 00 03                        	addb	%al, (%rbx)
      95: 00 06                        	addb	%al, (%rsi)
      97: 00 38                        	addb	%bh, (%rax)
      99: 03 40 00                     	addl	(%rax), %eax
		...
      ac: 03 00                        	addl	(%rax), %eax
      ae: 07                           	<unknown>
      af: 00 7e 03                     	addb	%bh, 3(%rsi)
      b2: 40 00 00                     	addb	%al, (%rax)
		...
      c1: 00 00                        	addb	%al, (%rax)
      c3: 00 03                        	addb	%al, (%rbx)
      c5: 00 08                        	addb	%cl, (%rax)
      c7: 00 88 03 40 00 00            	addb	%cl, 16387(%rax)
		...
      d9: 00 00                        	addb	%al, (%rax)
      db: 00 03                        	addb	%al, (%rbx)
      dd: 00 09                        	addb	%cl, (%rcx)
      df: 00 a8 03 40 00 00            	addb	%ch, 16387(%rax)
		...
      f1: 00 00                        	addb	%al, (%rax)
      f3: 00 03                        	addb	%al, (%rbx)
      f5: 00 0a                        	addb	%cl, (%rdx)
      f7: 00 d8                        	addb	%bl, %al
      f9: 03 40 00                     	addl	(%rax), %eax
		...
     10c: 03 00                        	addl	(%rax), %eax
     10e: 0b 00                        	orl	(%rax), %eax
     110: 08 04 40                     	orb	%al, (%rax,%rax,2)
		...
     123: 00 03                        	addb	%al, (%rbx)
     125: 00 0c 00                     	addb	%cl, (%rax,%rax)
     128: 20 04 40                     	andb	%al, (%rax,%rax,2)
		...
     13b: 00 03                        	addb	%al, (%rbx)
     13d: 00 0d 00 50 04 40            	addb	%cl, 1074024448(%rip)
		...
     153: 00 03                        	addb	%al, (%rbx)
     155: 00 0e                        	addb	%cl, (%rsi)
     157: 00 34 06                     	addb	%dh, (%rsi,%rax)
     15a: 40 00 00                     	addb	%al, (%rax)
		...
     169: 00 00                        	addb	%al, (%rax)
     16b: 00 03                        	addb	%al, (%rbx)
     16d: 00 0f                        	addb	%cl, (%rdi)
     16f: 00 40 06                     	addb	%al, 6(%rax)
     172: 40 00 00                     	addb	%al, (%rax)
		...
     181: 00 00                        	addb	%al, (%rax)
     183: 00 03                        	addb	%al, (%rbx)
     185: 00 10                        	addb	%dl, (%rax)
     187: 00 54 06 40                  	addb	%dl, 64(%rsi,%rax)
		...
     19b: 00 03                        	addb	%al, (%rbx)
     19d: 00 11                        	addb	%dl, (%rcx)
     19f: 00 88 06 40 00 00            	addb	%cl, 16390(%rax)
		...
     1b1: 00 00                        	addb	%al, (%rax)
     1b3: 00 03                        	addb	%al, (%rbx)
     1b5: 00 12                        	addb	%dl, (%rdx)
     1b7: 00 f8                        	addb	%bh, %al
     1b9: 0d 60 00 00 00               	orl	$96, %eax
		...
     1ca: 00 00                        	addb	%al, (%rax)
     1cc: 03 00                        	addl	(%rax), %eax
     1ce: 13 00                        	adcl	(%rax), %eax
     1d0: 00 0e                        	addb	%cl, (%rsi)
     1d2: 60                           	<unknown>
		...
     1e3: 00 03                        	addb	%al, (%rbx)
     1e5: 00 14 00                     	addb	%dl, (%rax,%rax)
     1e8: 08 0e                        	orb	%cl, (%rsi)
     1ea: 60                           	<unknown>
		...
     1fb: 00 03                        	addb	%al, (%rbx)
     1fd: 00 15 00 10 0e 60            	addb	%dl, 1611534336(%rip)
		...
     213: 00 03                        	addb	%al, (%rbx)
     215: 00 16                        	addb	%dl, (%rsi)
     217: 00 f0                        	addb	%dh, %al
     219: 0f 60 00                     	punpcklbw	(%rax), %mm0
		...
     22c: 03 00                        	addl	(%rax), %eax
     22e: 17                           	<unknown>
     22f: 00 00                        	addb	%al, (%rax)
     231: 10 60 00                     	adcb	%ah, (%rax)
		...
     244: 03 00                        	addl	(%rax), %eax
     246: 18 00                        	sbbb	%al, (%rax)
     248: 28 10                        	subb	%dl, (%rax)
     24a: 60                           	<unknown>
		...
     25b: 00 03                        	addb	%al, (%rbx)
     25d: 00 19                        	addb	%bl, (%rcx)
     25f: 00 38                        	addb	%bh, (%rax)
     261: 10 60 00                     	adcb	%ah, (%rax)
		...
     274: 03 00                        	addl	(%rax), %eax
     276: 1a 00                        	sbbb	(%rax), %al
		...
     288: 01 00                        	addl	%eax, (%rax)
     28a: 00 00                        	addb	%al, (%rax)
     28c: 04 00                        	addb	$0, %al
     28e: f1                           	<unknown>
     28f: ff 00                        	incl	(%rax)
		...
     29d: 00 00                        	addb	%al, (%rax)
     29f: 00 0c 00                     	addb	%cl, (%rax,%rax)
     2a2: 00 00                        	addb	%al, (%rax)
     2a4: 01 00                        	addl	%eax, (%rax)
     2a6: 14 00                        	adcb	$0, %al
     2a8: 08 0e                        	orb	%cl, (%rsi)
     2aa: 60                           	<unknown>
		...
     2b7: 00 19                        	addb	%bl, (%rcx)
     2b9: 00 00                        	addb	%al, (%rax)
     2bb: 00 02                        	addb	%al, (%rdx)
     2bd: 00 0d 00 80 04 40            	addb	%cl, 1074036736(%rip)
		...
     2cf: 00 1b                        	addb	%bl, (%rbx)
     2d1: 00 00                        	addb	%al, (%rax)
     2d3: 00 02                        	addb	%al, (%rdx)
     2d5: 00 0d 00 c0 04 40            	addb	%cl, 1074053120(%rip)
		...
     2e7: 00 2e                        	addb	%ch, (%rsi)
     2e9: 00 00                        	addb	%al, (%rax)
     2eb: 00 02                        	addb	%al, (%rdx)
     2ed: 00 0d 00 00 05 40            	addb	%cl, 1074069504(%rip)
		...
     2ff: 00 44 00 00                  	addb	%al, (%rax,%rax)
     303: 00 01                        	addb	%al, (%rcx)
     305: 00 19                        	addb	%bl, (%rcx)
     307: 00 38                        	addb	%bh, (%rax)
     309: 10 60 00                     	adcb	%ah, (%rax)
     30c: 00 00                        	addb	%al, (%rax)
     30e: 00 00                        	addb	%al, (%rax)
     310: 01 00                        	addl	%eax, (%rax)
     312: 00 00                        	addb	%al, (%rax)
     314: 00 00                        	addb	%al, (%rax)
     316: 00 00                        	addb	%al, (%rax)
     318: 53                           	pushq	%rbx
     319: 00 00                        	addb	%al, (%rax)
     31b: 00 01                        	addb	%al, (%rcx)
     31d: 00 13                        	addb	%dl, (%rbx)
     31f: 00 00                        	addb	%al, (%rax)
     321: 0e                           	<unknown>
     322: 60                           	<unknown>
		...
     32f: 00 7a 00                     	addb	%bh, (%rdx)
     332: 00 00                        	addb	%al, (%rax)
     334: 02 00                        	addb	(%rax), %al
     336: 0d 00 20 05 40               	orl	$1074077696, %eax
		...
     347: 00 86 00 00 00 01            	addb	%al, 16777216(%rsi)
     34d: 00 12                        	addb	%dl, (%rdx)
     34f: 00 f8                        	addb	%bh, %al
     351: 0d 60 00 00 00               	orl	$96, %eax
		...
     35e: 00 00                        	addb	%al, (%rax)
     360: a5                           	movsl	(%rsi), %es:(%rdi)
     361: 00 00                        	addb	%al, (%rax)
     363: 00 04 00                     	addb	%al, (%rax,%rax)
     366: f1                           	<unknown>
     367: ff 00                        	incl	(%rax)
		...
     375: 00 00                        	addb	%al, (%rax)
     377: 00 01                        	addb	%al, (%rcx)
     379: 00 00                        	addb	%al, (%rax)
     37b: 00 04 00                     	addb	%al, (%rax,%rax)
     37e: f1                           	<unknown>
     37f: ff 00                        	incl	(%rax)
		...
     38d: 00 00                        	addb	%al, (%rax)
     38f: 00 af 00 00 00 01            	addb	%ch, 16777216(%rdi)
     395: 00 11                        	addb	%dl, (%rcx)
     397: 00 78 07                     	addb	%bh, 7(%rax)
     39a: 40 00 00                     	addb	%al, (%rax)
		...
     3a5: 00 00                        	addb	%al, (%rax)
     3a7: 00 bd 00 00 00 01            	addb	%bh, 16777216(%rbp)
     3ad: 00 14 00                     	addb	%dl, (%rax,%rax)
     3b0: 08 0e                        	orb	%cl, (%rsi)
     3b2: 60                           	<unknown>
		...
     3c3: 00 04 00                     	addb	%al, (%rax,%rax)
     3c6: f1                           	<unknown>
     3c7: ff 00                        	incl	(%rax)
		...
     3d5: 00 00                        	addb	%al, (%rax)
     3d7: 00 c9                        	addb	%cl, %cl
     3d9: 00 00                        	addb	%al, (%rax)
     3db: 00 00                        	addb	%al, (%rax)
     3dd: 00 12                        	addb	%dl, (%rdx)
     3df: 00 00                        	addb	%al, (%rax)
     3e1: 0e                           	<unknown>
     3e2: 60                           	<unknown>
		...
     3ef: 00 da                        	addb	%bl, %dl
     3f1: 00 00                        	addb	%al, (%rax)
     3f3: 00 01                        	addb	%al, (%rcx)
     3f5: 00 15 00 10 0e 60            	addb	%dl, 1611534336(%rip)
		...
     407: 00 e3                        	addb	%ah, %bl
     409: 00 00                        	addb	%al, (%rax)
     40b: 00 00                        	addb	%al, (%rax)
     40d: 00 12                        	addb	%dl, (%rdx)
     40f: 00 f8                        	addb	%bh, %al
     411: 0d 60 00 00 00               	orl	$96, %eax
		...
     41e: 00 00                        	addb	%al, (%rax)
     420: f6 00 00                     	testb	$0, (%rax)
     423: 00 00                        	addb	%al, (%rax)
     425: 00 10                        	addb	%dl, (%rax)
     427: 00 54 06 40                  	addb	%dl, 64(%rsi,%rax)
		...
     437: 00 09                        	addb	%cl, (%rcx)
     439: 01 00                        	addl	%eax, (%rax)
     43b: 00 01                        	addb	%al, (%rcx)
     43d: 00 17                        	addb	%dl, (%rdi)
     43f: 00 00                        	addb	%al, (%rax)
     441: 10 60 00                     	adcb	%ah, (%rax)
		...
     450: 1f                           	<unknown>
     451: 01 00                        	addl	%eax, (%rax)
     453: 00 12                        	addb	%dl, (%rdx)
     455: 00 0d 00 30 06 40            	addb	%cl, 1074147328(%rip)
     45b: 00 00                        	addb	%al, (%rax)
     45d: 00 00                        	addb	%al, (%rax)
     45f: 00 02                        	addb	%al, (%rdx)
     461: 00 00                        	addb	%al, (%rax)
     463: 00 00                        	addb	%al, (%rax)
     465: 00 00                        	addb	%al, (%rax)
     467: 00 7e 01                     	addb	%bh, 1(%rsi)
     46a: 00 00                        	addb	%al, (%rax)
     46c: 20 00                        	andb	%al, (%rax)
     46e: 18 00                        	sbbb	%al, (%rax)
     470: 28 10                        	subb	%dl, (%rax)
     472: 60                           	<unknown>
		...
     47f: 00 2f                        	addb	%ch, (%rdi)
     481: 01 00                        	addl	%eax, (%rax)
     483: 00 12                        	addb	%dl, (%rdx)
		...
     495: 00 00                        	addb	%al, (%rax)
     497: 00 42 01                     	addb	%al, 1(%rdx)
     49a: 00 00                        	addb	%al, (%rax)
     49c: 10 00                        	adcb	%al, (%rax)
     49e: 18 00                        	sbbb	%al, (%rax)
     4a0: 38 10                        	cmpb	%dl, (%rax)
     4a2: 60                           	<unknown>
		...
     4af: 00 29                        	addb	%ch, (%rcx)
     4b1: 01 00                        	addl	%eax, (%rax)
     4b3: 00 12                        	addb	%dl, (%rdx)
     4b5: 00 0e                        	addb	%cl, (%rsi)
     4b7: 00 34 06                     	addb	%dh, (%rsi,%rax)
     4ba: 40 00 00                     	addb	%al, (%rax)
		...
     4c5: 00 00                        	addb	%al, (%rax)
     4c7: 00 49 01                     	addb	%cl, 1(%rcx)
     4ca: 00 00                        	addb	%al, (%rax)
     4cc: 12 00                        	adcb	(%rax), %al
		...
     4de: 00 00                        	addb	%al, (%rax)
     4e0: 5d                           	popq	%rbp
     4e1: 01 00                        	addl	%eax, (%rax)
     4e3: 00 12                        	addb	%dl, (%rdx)
		...
     4f5: 00 00                        	addb	%al, (%rax)
     4f7: 00 7c 01 00                  	addb	%bh, (%rcx,%rax)
     4fb: 00 10                        	addb	%dl, (%rax)
     4fd: 00 18                        	addb	%bl, (%rax)
     4ff: 00 28                        	addb	%ch, (%rax)
     501: 10 60 00                     	adcb	%ah, (%rax)
		...
     510: 89 01                        	movl	%eax, (%rcx)
     512: 00 00                        	addb	%al, (%rax)
     514: 20 00                        	andb	%al, (%rax)
		...
     526: 00 00                        	addb	%al, (%rax)
     528: 98                           	cwtl
     529: 01 00                        	addl	%eax, (%rax)
     52b: 00 11                        	addb	%dl, (%rcx)
     52d: 02 18                        	addb	(%rax), %bl
     52f: 00 30                        	addb	%dh, (%rax)
     531: 10 60 00                     	adcb	%ah, (%rax)
		...
     540: a5                           	movsl	(%rsi), %es:(%rdi)
     541: 01 00                        	addl	%eax, (%rax)
     543: 00 11                        	addb	%dl, (%rcx)
     545: 00 0f                        	addb	%cl, (%rdi)
     547: 00 40 06                     	addb	%al, 6(%rax)
     54a: 40 00 00                     	addb	%al, (%rax)
     54d: 00 00                        	addb	%al, (%rax)
     54f: 00 04 00                     	addb	%al, (%rax,%rax)
     552: 00 00                        	addb	%al, (%rax)
     554: 00 00                        	addb	%al, (%rax)
     556: 00 00                        	addb	%al, (%rax)
     558: b4 01                        	movb	$1, %ah
     55a: 00 00                        	addb	%al, (%rax)
     55c: 12 00                        	adcb	(%rax), %al
     55e: 0d 00 c0 05 40               	orl	$1074118656, %eax
     563: 00 00                        	addb	%al, (%rax)
     565: 00 00                        	addb	%al, (%rax)
     567: 00 65 00                     	addb	%ah, (%rbp)
     56a: 00 00                        	addb	%al, (%rax)
     56c: 00 00                        	addb	%al, (%rax)
     56e: 00 00                        	addb	%al, (%rax)
     570: d5                           	<unknown>
     571: 00 00                        	addb	%al, (%rax)
     573: 00 10                        	addb	%dl, (%rax)
     575: 00 19                        	addb	%bl, (%rcx)
     577: 00 40 10                     	addb	%al, 16(%rax)
     57a: 60                           	<unknown>
		...
     587: 00 82 01 00 00 12            	addb	%al, 301989889(%rdx)
     58d: 00 0d 00 50 04 40            	addb	%cl, 1074024448(%rip)
     593: 00 00                        	addb	%al, (%rax)
     595: 00 00                        	addb	%al, (%rax)
     597: 00 2b                        	addb	%ch, (%rbx)
     599: 00 00                        	addb	%al, (%rax)
     59b: 00 00                        	addb	%al, (%rax)
     59d: 00 00                        	addb	%al, (%rax)
     59f: 00 c4                        	addb	%al, %ah
     5a1: 01 00                        	addl	%eax, (%rax)
     5a3: 00 10                        	addb	%dl, (%rax)
     5a5: 00 19                        	addb	%bl, (%rcx)
     5a7: 00 38                        	addb	%bh, (%rax)
     5a9: 10 60 00                     	adcb	%ah, (%rax)
		...
     5b8: d0 01                        	rolb	(%rcx)
     5ba: 00 00                        	addb	%al, (%rax)
     5bc: 12 00                        	adcb	(%rax), %al
     5be: 0d 00 50 05 40               	orl	$1074089984, %eax
     5c3: 00 00                        	addb	%al, (%rax)
     5c5: 00 00                        	addb	%al, (%rax)
     5c7: 00 69 00                     	addb	%ch, (%rcx)
     5ca: 00 00                        	addb	%al, (%rax)
     5cc: 00 00                        	addb	%al, (%rax)
     5ce: 00 00                        	addb	%al, (%rax)
     5d0: d5                           	<unknown>
     5d1: 01 00                        	addl	%eax, (%rax)
     5d3: 00 11                        	addb	%dl, (%rcx)
     5d5: 02 18                        	addb	(%rax), %bl
     5d7: 00 38                        	addb	%bh, (%rax)
     5d9: 10 60 00                     	adcb	%ah, (%rax)
		...
     5e8: be 01 00 00 12               	movl	$301989889, %esi
     5ed: 00 0b                        	addb	%cl, (%rbx)
     5ef: 00 08                        	addb	%cl, (%rax)
     5f1: 04 40                        	addb	$64, %al
		...
     5ff: 00                           	<unknown>

Disassembly of section .strtab:

0000000000000000 .strtab:
       0: 00 63 72                     	addb	%ah, 114(%rbx)
       3: 74 73                        	je	115 <.comment+0x78>
       5: 74 75                        	je	117 <.comment+0x7c>
       7: 66 66 2e 63 00               	movslq	%cs:(%rax), %ax
       c: 5f                           	popq	%rdi
       d: 5f                           	popq	%rdi
       e: 4a 43                        	<unknown>
      10: 52                           	pushq	%rdx
      11: 5f                           	popq	%rdi
      12: 4c 49                        	<unknown>
      14: 53                           	pushq	%rbx
      15: 54                           	pushq	%rsp
      16: 5f                           	popq	%rdi
      17: 5f                           	popq	%rdi
      18: 00 64 65 72                  	addb	%ah, 114(%rbp,%riz,2)
      1c: 65 67 69 73 74 65 72 5f 74   	imull	$1952412261, %gs:116(%ebx), %esi
      25: 6d                           	insl	%dx, %es:(%rdi)
      26: 5f                           	popq	%rdi
      27: 63 6c 6f 6e                  	movslq	110(%rdi,%rbp,2), %ebp
      2b: 65 73 00                     	jae	0 <.comment+0x2e>
      2e: 5f                           	popq	%rdi
      2f: 5f                           	popq	%rdi
      30: 64 6f                        	outsl	%fs:(%rsi), %dx
      32: 5f                           	popq	%rdi
      33: 67 6c                        	insb	%dx, %es:(%edi)
      35: 6f                           	outsl	(%rsi), %dx
      36: 62 61 6c 5f 64               	<unknown>
      3b: 74 6f                        	je	111 <.comment+0xac>
      3d: 72 73                        	jb	115 <.comment+0xb2>
      3f: 5f                           	popq	%rdi
      40: 61                           	<unknown>
      41: 75 78                        	jne	120 <.comment+0xbb>
      43: 00 63 6f                     	addb	%ah, 111(%rbx)
      46: 6d                           	insl	%dx, %es:(%rdi)
      47: 70 6c                        	jo	108 <.comment+0xb5>
      49: 65 74 65                     	je	101 <.comment+0xb1>
      4c: 64 2e 36 39 37               	cmpl	%esi, %ss:(%rdi)
      51: 32 00                        	xorb	(%rax), %al
      53: 5f                           	popq	%rdi
      54: 5f                           	popq	%rdi
      55: 64 6f                        	outsl	%fs:(%rsi), %dx
      57: 5f                           	popq	%rdi
      58: 67 6c                        	insb	%dx, %es:(%edi)
      5a: 6f                           	outsl	(%rsi), %dx
      5b: 62 61 6c 5f 64               	<unknown>
      60: 74 6f                        	je	111 <.comment+0xd1>
      62: 72 73                        	jb	115 <.comment+0xd7>
      64: 5f                           	popq	%rdi
      65: 61                           	<unknown>
      66: 75 78                        	jne	120 <.comment+0xe0>
      68: 5f                           	popq	%rdi
      69: 66 69 6e 69 5f 61            	imulw	$24927, 105(%rsi), %bp
      6f: 72 72                        	jb	114 <.comment+0xe3>
      71: 61                           	<unknown>
      72: 79 5f                        	jns	95 <.comment+0xd3>
      74: 65 6e                        	outsb	%gs:(%rsi), %dx
      76: 74 72                        	je	114 <.comment+0xea>
      78: 79 00                        	jns	0 <.comment+0x7a>
      7a: 66 72 61                     	jb	97 <.comment+0xde>
      7d: 6d                           	insl	%dx, %es:(%rdi)
      7e: 65 5f                        	popq	%rdi
      80: 64 75 6d                     	jne	109 <.comment+0xf0>
      83: 6d                           	insl	%dx, %es:(%rdi)
      84: 79 00                        	jns	0 <.comment+0x86>
      86: 5f                           	popq	%rdi
      87: 5f                           	popq	%rdi
      88: 66 72 61                     	jb	97 <.comment+0xec>
      8b: 6d                           	insl	%dx, %es:(%rdi)
      8c: 65 5f                        	popq	%rdi
      8e: 64 75 6d                     	jne	109 <.comment+0xfe>
      91: 6d                           	insl	%dx, %es:(%rdi)
      92: 79 5f                        	jns	95 <.comment+0xf3>
      94: 69 6e 69 74 5f 61 72         	imull	$1918984052, 105(%rsi), %ebp
      9b: 72 61                        	jb	97 <.comment+0xfe>
      9d: 79 5f                        	jns	95 <.comment+0xfe>
      9f: 65 6e                        	outsb	%gs:(%rsi), %dx
      a1: 74 72                        	je	114 <.comment+0x115>
      a3: 79 00                        	jns	0 <.comment+0xa5>
      a5: 68 65 6c 6c 6f               	pushq	$1869376613
      aa: 2d 63 2e 63 00               	subl	$6499939, %eax
      af: 5f                           	popq	%rdi
      b0: 5f                           	popq	%rdi
      b1: 46 52                        	pushq	%rdx
      b3: 41 4d                        	<unknown>
      b5: 45 5f                        	popq	%r15
      b7: 45 4e                        	<unknown>
      b9: 44 5f                        	popq	%rdi
      bb: 5f                           	popq	%rdi
      bc: 00 5f 5f                     	addb	%bl, 95(%rdi)
      bf: 4a 43                        	<unknown>
      c1: 52                           	pushq	%rdx
      c2: 5f                           	popq	%rdi
      c3: 45 4e                        	<unknown>
      c5: 44 5f                        	popq	%rdi
      c7: 5f                           	popq	%rdi
      c8: 00 5f 5f                     	addb	%bl, 95(%rdi)
      cb: 69 6e 69 74 5f 61 72         	imull	$1918984052, 105(%rsi), %ebp
      d2: 72 61                        	jb	97 <.comment+0x135>
      d4: 79 5f                        	jns	95 <.comment+0x135>
      d6: 65 6e                        	outsb	%gs:(%rsi), %dx
      d8: 64 00 5f 44                  	addb	%bl, %fs:68(%rdi)
      dc: 59                           	popq	%rcx
      dd: 4e 41                        	<unknown>
      df: 4d 49                        	<unknown>
      e1: 43 00 5f 5f                  	addb	%bl, 95(%r15)
      e5: 69 6e 69 74 5f 61 72         	imull	$1918984052, 105(%rsi), %ebp
      ec: 72 61                        	jb	97 <.comment+0x14f>
      ee: 79 5f                        	jns	95 <.comment+0x14f>
      f0: 73 74                        	jae	116 <.comment+0x166>
      f2: 61                           	<unknown>
      f3: 72 74                        	jb	116 <.comment+0x169>
      f5: 00 5f 5f                     	addb	%bl, 95(%rdi)
      f8: 47 4e                        	<unknown>
      fa: 55                           	pushq	%rbp
      fb: 5f                           	popq	%rdi
      fc: 45 48                        	rex64
      fe: 5f                           	popq	%rdi
      ff: 46 52                        	pushq	%rdx
     101: 41 4d                        	<unknown>
     103: 45 5f                        	popq	%r15
     105: 48 44                        	<unknown>
     107: 52                           	pushq	%rdx
     108: 00 5f 47                     	addb	%bl, 71(%rdi)
     10b: 4c 4f                        	<unknown>
     10d: 42 41                        	<unknown>
     10f: 4c 5f                        	popq	%rdi
     111: 4f 46                        	<unknown>
     113: 46 53                        	pushq	%rbx
     115: 45 54                        	pushq	%r12
     117: 5f                           	popq	%rdi
     118: 54                           	pushq	%rsp
     119: 41 42                        	<unknown>
     11b: 4c 45                        	<unknown>
     11d: 5f                           	popq	%rdi
     11e: 00 5f 5f                     	addb	%bl, 95(%rdi)
     121: 6c                           	insb	%dx, %es:(%rdi)
     122: 69 62 63 5f 63 73 75         	imull	$1970496351, 99(%rdx), %esp
     129: 5f                           	popq	%rdi
     12a: 66 69 6e 69 00 77            	imulw	$30464, 105(%rsi), %bp
     130: 72 69                        	jb	105 <.comment+0x19b>
     132: 74 65                        	je	101 <.comment+0x199>
     134: 40 40                        	<unknown>
     136: 47 4c                        	<unknown>
     138: 49 42                        	<unknown>
     13a: 43 5f                        	popq	%r15
     13c: 32 2e                        	xorb	(%rsi), %ch
     13e: 32 2e                        	xorb	(%rsi), %ch
     140: 35 00 5f 65 64               	xorl	$1684365056, %eax
     145: 61                           	<unknown>
     146: 74 61                        	je	97 <.comment+0x1a9>
     148: 00 73 74                     	addb	%dh, 116(%rbx)
     14b: 72 6c                        	jb	108 <.comment+0x1b9>
     14d: 65 6e                        	outsb	%gs:(%rsi), %dx
     14f: 40 40                        	<unknown>
     151: 47 4c                        	<unknown>
     153: 49 42                        	<unknown>
     155: 43 5f                        	popq	%r15
     157: 32 2e                        	xorb	(%rsi), %ch
     159: 32 2e                        	xorb	(%rsi), %ch
     15b: 35 00 5f 5f 6c               	xorl	$1818189568, %eax
     160: 69 62 63 5f 73 74 61         	imull	$1635021663, 99(%rdx), %esp
     167: 72 74                        	jb	116 <.comment+0x1dd>
     169: 5f                           	popq	%rdi
     16a: 6d                           	insl	%dx, %es:(%rdi)
     16b: 61                           	<unknown>
     16c: 69 6e 40 40 47 4c 49         	imull	$1229735744, 64(%rsi), %ebp
     173: 42 43                        	<unknown>
     175: 5f                           	popq	%rdi
     176: 32 2e                        	xorb	(%rsi), %ch
     178: 32 2e                        	xorb	(%rsi), %ch
     17a: 35 00 5f 5f 64               	xorl	$1683971840, %eax
     17f: 61                           	<unknown>
     180: 74 61                        	je	97 <.comment+0x1e3>
     182: 5f                           	popq	%rdi
     183: 73 74                        	jae	116 <.comment+0x1f9>
     185: 61                           	<unknown>
     186: 72 74                        	jb	116 <.comment+0x1fc>
     188: 00 5f 5f                     	addb	%bl, 95(%rdi)
     18b: 67 6d                        	insl	%dx, %es:(%edi)
     18d: 6f                           	outsl	(%rsi), %dx
     18e: 6e                           	outsb	(%rsi), %dx
     18f: 5f                           	popq	%rdi
     190: 73 74                        	jae	116 <.comment+0x206>
     192: 61                           	<unknown>
     193: 72 74                        	jb	116 <.comment+0x209>
     195: 5f                           	popq	%rdi
     196: 5f                           	popq	%rdi
     197: 00 5f 5f                     	addb	%bl, 95(%rdi)
     19a: 64 73 6f                     	jae	111 <.comment+0x20c>
     19d: 5f                           	popq	%rdi
     19e: 68 61 6e 64 6c               	pushq	$1818521185
     1a3: 65 00 5f 49                  	addb	%bl, %gs:73(%rdi)
     1a7: 4f 5f                        	popq	%r15
     1a9: 73 74                        	jae	116 <.comment+0x21f>
     1ab: 64 69 6e 5f 75 73 65 64      	imull	$1684370293, %fs:95(%rsi), %ebp
     1b3: 00 5f 5f                     	addb	%bl, 95(%rdi)
     1b6: 6c                           	insb	%dx, %es:(%rdi)
     1b7: 69 62 63 5f 63 73 75         	imull	$1970496351, 99(%rdx), %esp
     1be: 5f                           	popq	%rdi
     1bf: 69 6e 69 74 00 5f 5f         	imull	$1600061556, 105(%rsi), %ebp
     1c6: 62                           	<unknown>
     1c7: 73 73                        	jae	115 <.comment+0x23c>
     1c9: 5f                           	popq	%rdi
     1ca: 73 74                        	jae	116 <.comment+0x240>
     1cc: 61                           	<unknown>
     1cd: 72 74                        	jb	116 <.comment+0x243>
     1cf: 00 6d 61                     	addb	%ch, 97(%rbp)
     1d2: 69 6e 00 5f 5f 54 4d         	imull	$1297375071, (%rsi), %ebp
     1d9: 43 5f                        	popq	%r15
     1db: 45 4e                        	<unknown>
     1dd: 44 5f                        	popq	%rdi
     1df: 5f                           	popq	%rdi
     1e0: 00                           	<unknown>

Disassembly of section .shstrtab:

0000000000000000 .shstrtab:
       0: 00 2e                        	addb	%ch, (%rsi)
       2: 73 79                        	jae	121 <.comment+0x7d>
       4: 6d                           	insl	%dx, %es:(%rdi)
       5: 74 61                        	je	97 <.comment+0x68>
       7: 62 00 2e 73                  	<unknown>
       b: 74 72                        	je	114 <.comment+0x7f>
       d: 74 61                        	je	97 <.comment+0x70>
       f: 62 00 2e 73                  	<unknown>
      13: 68 73 74 72 74               	pushq	$1953657971
      18: 61                           	<unknown>
      19: 62 00 2e 69                  	<unknown>
      1d: 6e                           	outsb	(%rsi), %dx
      1e: 74 65                        	je	101 <.comment+0x85>
      20: 72 70                        	jb	112 <.comment+0x92>
      22: 00 2e                        	addb	%ch, (%rsi)
      24: 6e                           	outsb	(%rsi), %dx
      25: 6f                           	outsl	(%rsi), %dx
      26: 74 65                        	je	101 <.comment+0x8d>
      28: 2e 41 42                     	<unknown>
      2b: 49 2d 74 61 67 00            	subq	$6775156, %rax
      31: 2e 67 6e                     	outsb	%cs:(%esi), %dx
      34: 75 2e                        	jne	46 <.comment+0x64>
      36: 68 61 73 68 00               	pushq	$6845281
      3b: 2e 64 79 6e                  	jns	110 <.comment+0xad>
      3f: 73 79                        	jae	121 <.comment+0xba>
      41: 6d                           	insl	%dx, %es:(%rdi)
      42: 00 2e                        	addb	%ch, (%rsi)
      44: 64 79 6e                     	jns	110 <.comment+0xb5>
      47: 73 74                        	jae	116 <.comment+0xbd>
      49: 72 00                        	jb	0 <.comment+0x4b>
      4b: 2e 67 6e                     	outsb	%cs:(%esi), %dx
      4e: 75 2e                        	jne	46 <.comment+0x7e>
      50: 76 65                        	jbe	101 <.comment+0xb7>
      52: 72 73                        	jb	115 <.comment+0xc7>
      54: 69 6f 6e 00 2e 67 6e         	imull	$1852255744, 110(%rdi), %ebp
      5b: 75 2e                        	jne	46 <.comment+0x8b>
      5d: 76 65                        	jbe	101 <.comment+0xc4>
      5f: 72 73                        	jb	115 <.comment+0xd4>
      61: 69 6f 6e 5f 72 00 2e         	imull	$771781215, 110(%rdi), %ebp
      68: 72 65                        	jb	101 <.comment+0xcf>
      6a: 6c                           	insb	%dx, %es:(%rdi)
      6b: 61                           	<unknown>
      6c: 2e 64 79 6e                  	jns	110 <.comment+0xde>
      70: 00 2e                        	addb	%ch, (%rsi)
      72: 72 65                        	jb	101 <.comment+0xd9>
      74: 6c                           	insb	%dx, %es:(%rdi)
      75: 61                           	<unknown>
      76: 2e 70 6c                     	jo	108 <.comment+0xe5>
      79: 74 00                        	je	0 <.comment+0x7b>
      7b: 2e 69 6e 69 74 00 2e 74      	imull	$1949171828, %cs:105(%rsi), %ebp
      83: 65 78 74                     	js	116 <.comment+0xfa>
      86: 00 2e                        	addb	%ch, (%rsi)
      88: 66 69 6e 69 00 2e            	imulw	$11776, 105(%rsi), %bp
      8e: 72 6f                        	jb	111 <.comment+0xff>
      90: 64 61                        	<unknown>
      92: 74 61                        	je	97 <.comment+0xf5>
      94: 00 2e                        	addb	%ch, (%rsi)
      96: 65 68 5f 66 72 61            	pushq	$1634887263
      9c: 6d                           	insl	%dx, %es:(%rdi)
      9d: 65 5f                        	popq	%rdi
      9f: 68 64 72 00 2e               	pushq	$771781220
      a4: 65 68 5f 66 72 61            	pushq	$1634887263
      aa: 6d                           	insl	%dx, %es:(%rdi)
      ab: 65 00 2e                     	addb	%ch, %gs:(%rsi)
      ae: 69 6e 69 74 5f 61 72         	imull	$1918984052, 105(%rsi), %ebp
      b5: 72 61                        	jb	97 <.comment+0x118>
      b7: 79 00                        	jns	0 <.comment+0xb9>
      b9: 2e 66 69 6e 69 5f 61         	imulw	$24927, %cs:105(%rsi), %bp
      c0: 72 72                        	jb	114 <.comment+0x134>
      c2: 61                           	<unknown>
      c3: 79 00                        	jns	0 <.comment+0xc5>
      c5: 2e 6a 63                     	pushq	$99
      c8: 72 00                        	jb	0 <.comment+0xca>
      ca: 2e 64 79 6e                  	jns	110 <.comment+0x13c>
      ce: 61                           	<unknown>
      cf: 6d                           	insl	%dx, %es:(%rdi)
      d0: 69 63 00 2e 67 6f 74         	imull	$1953457966, (%rbx), %esp
      d7: 00 2e                        	addb	%ch, (%rsi)
      d9: 67 6f                        	outsl	(%esi), %dx
      db: 74 2e                        	je	46 <.comment+0x10b>
      dd: 70 6c                        	jo	108 <.comment+0x14b>
      df: 74 00                        	je	0 <.comment+0xe1>
      e1: 2e 64 61                     	<unknown>
      e4: 74 61                        	je	97 <.comment+0x147>
      e6: 00 2e                        	addb	%ch, (%rsi)
      e8: 62                           	<unknown>
      e9: 73 73                        	jae	115 <.comment+0x15e>
      eb: 00 2e                        	addb	%ch, (%rsi)
      ed: 63 6f 6d                     	movslq	109(%rdi), %ebp
      f0: 6d                           	insl	%dx, %es:(%rdi)
      f1: 65 6e                        	outsb	%gs:(%rsi), %dx
      f3: 74 00                        	je	0 <.comment+0xf5>
